CCS PCM C Compiler, Version 5.015, 5967               19-nov-18 17:38

               Filename:   D:\UFSC\projeto_final_banco_baterias-20181108T214644Z-001\projeto_final_banco_baterias\FIRMWARE\main.lst

               ROM used:   4894 words (60%)
                           Largest free fragment is 2048
               RAM used:   45 (12%) at main() level
                           110 (30%) worst case
               Stack used: 8 locations (4 in main + 4 for interrupts)
               Stack size: 8

*
0000:  MOVLW  0E
0001:  MOVWF  0A
0002:  GOTO   600
0003:  NOP
0004:  MOVWF  7F
0005:  SWAPF  03,W
0006:  CLRF   03
0007:  MOVWF  21
0008:  MOVF   0A,W
0009:  MOVWF  20
000A:  CLRF   0A
000B:  MOVF   04,W
000C:  MOVWF  22
000D:  MOVF   77,W
000E:  MOVWF  23
000F:  MOVF   78,W
0010:  MOVWF  24
0011:  MOVF   79,W
0012:  MOVWF  25
0013:  MOVF   7A,W
0014:  MOVWF  26
0015:  BSF    03.6
0016:  MOVF   0D,W
0017:  BCF    03.6
0018:  MOVWF  27
0019:  BSF    03.6
001A:  MOVF   0F,W
001B:  BCF    03.6
001C:  MOVWF  28
001D:  BSF    03.6
001E:  MOVF   0C,W
001F:  BCF    03.6
0020:  MOVWF  29
0021:  BSF    03.6
0022:  MOVF   0E,W
0023:  BCF    03.6
0024:  MOVWF  2A
0025:  BCF    03.7
0026:  BCF    03.5
0027:  BTFSS  0B.4
0028:  GOTO   02B
0029:  BTFSC  0B.1
002A:  GOTO   052
002B:  MOVLW  8C
002C:  MOVWF  04
002D:  BTFSS  00.0
002E:  GOTO   031
002F:  BTFSC  0C.0
0030:  GOTO   055
0031:  MOVF   22,W
0032:  MOVWF  04
0033:  MOVF   23,W
0034:  MOVWF  77
0035:  MOVF   24,W
0036:  MOVWF  78
0037:  MOVF   25,W
0038:  MOVWF  79
0039:  MOVF   26,W
003A:  MOVWF  7A
003B:  MOVF   27,W
003C:  BSF    03.6
003D:  MOVWF  0D
003E:  BCF    03.6
003F:  MOVF   28,W
0040:  BSF    03.6
0041:  MOVWF  0F
0042:  BCF    03.6
0043:  MOVF   29,W
0044:  BSF    03.6
0045:  MOVWF  0C
0046:  BCF    03.6
0047:  MOVF   2A,W
0048:  BSF    03.6
0049:  MOVWF  0E
004A:  BCF    03.6
004B:  MOVF   20,W
004C:  MOVWF  0A
004D:  SWAPF  21,W
004E:  MOVWF  03
004F:  SWAPF  7F,F
0050:  SWAPF  7F,W
0051:  RETFIE
0052:  BSF    0A.3
0053:  BCF    0A.4
0054:  GOTO   000
0055:  BCF    0A.3
0056:  BCF    0A.4
0057:  GOTO   68B
.................... #include <main.h> 
.................... #include <16F877A.h> 
.................... //////////// Standard Header file for the PIC16F877A device //////////////// 
.................... /////////////////////////////////////////////////////////////////////////// 
.................... ////        (C) Copyright 1996, 2013 Custom Computer Services          //// 
.................... //// This source code may only be used by licensed users of the CCS C  //// 
.................... //// compiler.  This source code may only be distributed to other      //// 
.................... //// licensed users of the CCS C compiler.  No other use, reproduction //// 
.................... //// or distribution is permitted without written permission.          //// 
.................... //// Derivative programs created using this software in object code    //// 
.................... //// form are not restricted in any way.                               //// 
.................... /////////////////////////////////////////////////////////////////////////// 
.................... #device PIC16F877A 
*
01FA:  MOVLW  8E
01FB:  MOVWF  77
01FC:  MOVF   66,W
01FD:  MOVWF  78
01FE:  MOVF   65,W
01FF:  MOVWF  79
0200:  CLRF   7A
0201:  MOVF   78,F
0202:  BTFSS  03.2
0203:  GOTO   20E
0204:  MOVF   79,W
0205:  MOVWF  78
0206:  CLRF   79
0207:  MOVLW  08
0208:  SUBWF  77,F
0209:  MOVF   78,F
020A:  BTFSS  03.2
020B:  GOTO   20E
020C:  CLRF   77
020D:  GOTO   216
020E:  BCF    03.0
020F:  BTFSC  78.7
0210:  GOTO   215
0211:  RLF    79,F
0212:  RLF    78,F
0213:  DECF   77,F
0214:  GOTO   20E
0215:  BCF    78.7
*
0236:  MOVF   66,W
0237:  MOVWF  6D
0238:  MOVF   6A,W
0239:  XORWF  6D,F
023A:  BTFSS  6D.7
023B:  GOTO   241
023C:  BCF    03.2
023D:  BCF    03.0
023E:  BTFSC  66.7
023F:  BSF    03.0
0240:  GOTO   274
0241:  MOVF   66,W
0242:  MOVWF  6D
0243:  MOVF   69,W
0244:  MOVWF  6E
0245:  MOVF   65,W
0246:  SUBWF  6E,F
0247:  BTFSC  03.2
0248:  GOTO   24F
0249:  BTFSS  6D.7
024A:  GOTO   274
024B:  MOVF   03,W
024C:  XORLW  01
024D:  MOVWF  03
024E:  GOTO   274
024F:  MOVF   6A,W
0250:  MOVWF  6E
0251:  MOVF   66,W
0252:  SUBWF  6E,F
0253:  BTFSC  03.2
0254:  GOTO   25B
0255:  BTFSS  6D.7
0256:  GOTO   274
0257:  MOVF   03,W
0258:  XORLW  01
0259:  MOVWF  03
025A:  GOTO   274
025B:  MOVF   6B,W
025C:  MOVWF  6E
025D:  MOVF   67,W
025E:  SUBWF  6E,F
025F:  BTFSC  03.2
0260:  GOTO   267
0261:  BTFSS  6D.7
0262:  GOTO   274
0263:  MOVF   03,W
0264:  XORLW  01
0265:  MOVWF  03
0266:  GOTO   274
0267:  MOVF   6C,W
0268:  MOVWF  6E
0269:  MOVF   68,W
026A:  SUBWF  6E,F
026B:  BTFSC  03.2
026C:  GOTO   273
026D:  BTFSS  6D.7
026E:  GOTO   274
026F:  MOVF   03,W
0270:  XORLW  01
0271:  MOVWF  03
0272:  GOTO   274
0273:  BCF    03.0
0274:  RETURN
*
02EE:  MOVLW  80
02EF:  BTFSC  03.1
02F0:  XORWF  6E,F
02F1:  BSF    03.5
02F2:  CLRF   22
02F3:  CLRF   23
02F4:  BCF    03.5
02F5:  MOVF   6A,W
02F6:  BSF    03.5
02F7:  MOVWF  21
02F8:  BCF    03.5
02F9:  MOVF   6E,W
02FA:  BSF    03.5
02FB:  XORWF  21,F
02FC:  BCF    03.5
02FD:  MOVF   69,W
02FE:  BTFSC  03.2
02FF:  GOTO   404
0300:  BSF    03.5
0301:  MOVWF  20
0302:  MOVWF  77
0303:  BCF    03.5
0304:  MOVF   6D,W
0305:  BTFSC  03.2
0306:  GOTO   411
0307:  BSF    03.5
0308:  SUBWF  20,F
0309:  BTFSC  03.2
030A:  GOTO   39E
030B:  BTFSS  03.0
030C:  GOTO   350
030D:  BCF    03.5
030E:  MOVF   6E,W
030F:  BSF    03.5
0310:  MOVWF  26
0311:  BSF    26.7
0312:  BCF    03.5
0313:  MOVF   6F,W
0314:  BSF    03.5
0315:  MOVWF  25
0316:  MOVF   70,W
0317:  MOVWF  24
0318:  CLRF   23
0319:  BCF    03.0
031A:  RRF    26,F
031B:  RRF    25,F
031C:  RRF    24,F
031D:  RRF    23,F
031E:  DECFSZ 20,F
031F:  GOTO   318
0320:  BTFSS  21.7
0321:  GOTO   325
0322:  BSF    22.0
0323:  GOTO   42A
0324:  BCF    22.0
0325:  BCF    20.0
0326:  BSF    22.4
0327:  MOVLW  6C
0328:  MOVWF  04
0329:  BCF    03.7
032A:  GOTO   43F
032B:  BCF    22.4
032C:  BTFSC  21.7
032D:  GOTO   338
032E:  BTFSS  20.0
032F:  GOTO   343
0330:  RRF    26,F
0331:  RRF    25,F
0332:  RRF    24,F
0333:  RRF    23,F
0334:  INCF   77,F
0335:  BTFSC  03.2
0336:  GOTO   425
0337:  GOTO   343
0338:  BTFSC  26.7
0339:  GOTO   346
033A:  BCF    03.0
033B:  RLF    23,F
033C:  RLF    24,F
033D:  RLF    25,F
033E:  RLF    26,F
033F:  DECF   77,F
0340:  BTFSC  03.2
0341:  GOTO   425
0342:  GOTO   338
0343:  BSF    22.6
0344:  GOTO   3C4
0345:  BCF    22.6
0346:  BCF    03.5
0347:  MOVF   6A,W
0348:  BSF    03.5
0349:  MOVWF  21
034A:  BTFSS  21.7
034B:  GOTO   34E
034C:  BSF    26.7
034D:  GOTO   41E
034E:  BCF    26.7
034F:  GOTO   41E
0350:  BCF    03.5
0351:  MOVF   6D,W
0352:  BSF    03.5
0353:  MOVWF  20
0354:  MOVWF  77
0355:  BCF    03.5
0356:  MOVF   69,W
0357:  BSF    03.5
0358:  SUBWF  20,F
0359:  BCF    03.5
035A:  MOVF   6A,W
035B:  BSF    03.5
035C:  MOVWF  26
035D:  BSF    26.7
035E:  BCF    03.5
035F:  MOVF   6B,W
0360:  BSF    03.5
0361:  MOVWF  25
0362:  BCF    03.5
0363:  MOVF   6C,W
0364:  BSF    03.5
0365:  MOVWF  24
0366:  CLRF   23
0367:  BCF    03.0
0368:  RRF    26,F
0369:  RRF    25,F
036A:  RRF    24,F
036B:  RRF    23,F
036C:  DECFSZ 20,F
036D:  GOTO   366
036E:  BTFSS  21.7
036F:  GOTO   373
0370:  BSF    22.1
0371:  GOTO   42A
0372:  BCF    22.1
0373:  BCF    20.0
0374:  BSF    22.5
0375:  MOVLW  70
0376:  MOVWF  04
0377:  BCF    03.7
0378:  GOTO   43F
0379:  BCF    22.5
037A:  BTFSC  21.7
037B:  GOTO   386
037C:  BTFSS  20.0
037D:  GOTO   391
037E:  RRF    26,F
037F:  RRF    25,F
0380:  RRF    24,F
0381:  RRF    23,F
0382:  INCF   77,F
0383:  BTFSC  03.2
0384:  GOTO   425
0385:  GOTO   391
0386:  BTFSC  26.7
0387:  GOTO   394
0388:  BCF    03.0
0389:  RLF    23,F
038A:  RLF    24,F
038B:  RLF    25,F
038C:  RLF    26,F
038D:  DECF   77,F
038E:  BTFSC  03.2
038F:  GOTO   425
0390:  GOTO   386
0391:  BSF    22.7
0392:  GOTO   3C4
0393:  BCF    22.7
0394:  BCF    03.5
0395:  MOVF   6E,W
0396:  BSF    03.5
0397:  MOVWF  21
0398:  BTFSS  21.7
0399:  GOTO   39C
039A:  BSF    26.7
039B:  GOTO   41E
039C:  BCF    26.7
039D:  GOTO   41E
039E:  BCF    03.5
039F:  MOVF   6E,W
03A0:  BSF    03.5
03A1:  MOVWF  26
03A2:  BSF    26.7
03A3:  BCF    03.5
03A4:  MOVF   6F,W
03A5:  BSF    03.5
03A6:  MOVWF  25
03A7:  MOVF   70,W
03A8:  MOVWF  24
03A9:  BTFSS  21.7
03AA:  GOTO   3AF
03AB:  BCF    26.7
03AC:  BSF    22.2
03AD:  GOTO   42A
03AE:  BCF    22.2
03AF:  CLRF   23
03B0:  BCF    20.0
03B1:  MOVLW  6C
03B2:  MOVWF  04
03B3:  BCF    03.7
03B4:  GOTO   43F
03B5:  BTFSC  21.7
03B6:  GOTO   3DA
03B7:  BCF    03.5
03B8:  MOVF   6A,W
03B9:  BSF    03.5
03BA:  MOVWF  21
03BB:  BTFSS  20.0
03BC:  GOTO   3C4
03BD:  RRF    26,F
03BE:  RRF    25,F
03BF:  RRF    24,F
03C0:  RRF    23,F
03C1:  INCF   77,F
03C2:  BTFSC  03.2
03C3:  GOTO   425
03C4:  BTFSS  23.7
03C5:  GOTO   3D5
03C6:  INCF   24,F
03C7:  BTFSS  03.2
03C8:  GOTO   3D5
03C9:  INCF   25,F
03CA:  BTFSS  03.2
03CB:  GOTO   3D5
03CC:  INCF   26,F
03CD:  BTFSS  03.2
03CE:  GOTO   3D5
03CF:  RRF    26,F
03D0:  RRF    25,F
03D1:  RRF    24,F
03D2:  INCF   77,F
03D3:  BTFSC  03.2
03D4:  GOTO   425
03D5:  BTFSC  22.6
03D6:  GOTO   345
03D7:  BTFSC  22.7
03D8:  GOTO   393
03D9:  GOTO   3FD
03DA:  MOVLW  80
03DB:  XORWF  26,F
03DC:  BTFSS  26.7
03DD:  GOTO   3E4
03DE:  GOTO   42A
03DF:  BCF    03.5
03E0:  MOVF   6E,W
03E1:  BSF    03.5
03E2:  MOVWF  21
03E3:  GOTO   3F3
03E4:  BCF    03.5
03E5:  MOVF   6A,W
03E6:  BSF    03.5
03E7:  MOVWF  21
03E8:  MOVF   26,F
03E9:  BTFSS  03.2
03EA:  GOTO   3F3
03EB:  MOVF   25,F
03EC:  BTFSS  03.2
03ED:  GOTO   3F3
03EE:  MOVF   24,F
03EF:  BTFSS  03.2
03F0:  GOTO   3F3
03F1:  CLRF   77
03F2:  GOTO   41E
03F3:  BTFSC  26.7
03F4:  GOTO   3FD
03F5:  BCF    03.0
03F6:  RLF    23,F
03F7:  RLF    24,F
03F8:  RLF    25,F
03F9:  RLF    26,F
03FA:  DECFSZ 77,F
03FB:  GOTO   3F3
03FC:  GOTO   425
03FD:  BTFSS  21.7
03FE:  GOTO   401
03FF:  BSF    26.7
0400:  GOTO   41E
0401:  BCF    26.7
0402:  GOTO   41E
0403:  BCF    03.5
0404:  MOVF   6D,W
0405:  MOVWF  77
0406:  MOVF   6E,W
0407:  BSF    03.5
0408:  MOVWF  26
0409:  BCF    03.5
040A:  MOVF   6F,W
040B:  BSF    03.5
040C:  MOVWF  25
040D:  MOVF   70,W
040E:  MOVWF  24
040F:  GOTO   41E
0410:  BCF    03.5
0411:  MOVF   69,W
0412:  MOVWF  77
0413:  MOVF   6A,W
0414:  BSF    03.5
0415:  MOVWF  26
0416:  BCF    03.5
0417:  MOVF   6B,W
0418:  BSF    03.5
0419:  MOVWF  25
041A:  BCF    03.5
041B:  MOVF   6C,W
041C:  BSF    03.5
041D:  MOVWF  24
041E:  MOVF   26,W
041F:  MOVWF  78
0420:  MOVF   25,W
0421:  MOVWF  79
0422:  MOVF   24,W
0423:  MOVWF  7A
0424:  GOTO   45D
0425:  CLRF   77
0426:  CLRF   78
0427:  CLRF   79
0428:  CLRF   7A
0429:  GOTO   45D
042A:  CLRF   23
042B:  COMF   24,F
042C:  COMF   25,F
042D:  COMF   26,F
042E:  COMF   23,F
042F:  INCF   23,F
0430:  BTFSS  03.2
0431:  GOTO   438
0432:  INCF   24,F
0433:  BTFSS  03.2
0434:  GOTO   438
0435:  INCF   25,F
0436:  BTFSC  03.2
0437:  INCF   26,F
0438:  BTFSC  22.0
0439:  GOTO   324
043A:  BTFSC  22.1
043B:  GOTO   372
043C:  BTFSC  22.2
043D:  GOTO   3AE
043E:  GOTO   3DF
043F:  MOVF   00,W
0440:  ADDWF  24,F
0441:  BTFSS  03.0
0442:  GOTO   449
0443:  INCF   25,F
0444:  BTFSS  03.2
0445:  GOTO   449
0446:  INCF   26,F
0447:  BTFSC  03.2
0448:  BSF    20.0
0449:  DECF   04,F
044A:  MOVF   00,W
044B:  ADDWF  25,F
044C:  BTFSS  03.0
044D:  GOTO   451
044E:  INCF   26,F
044F:  BTFSC  03.2
0450:  BSF    20.0
0451:  DECF   04,F
0452:  MOVF   00,W
0453:  BTFSS  00.7
0454:  XORLW  80
0455:  ADDWF  26,F
0456:  BTFSC  03.0
0457:  BSF    20.0
0458:  BTFSC  22.4
0459:  GOTO   32B
045A:  BTFSC  22.5
045B:  GOTO   379
045C:  GOTO   3B5
045D:  BCF    03.5
045E:  RETURN
045F:  MOVF   04,W
0460:  MOVWF  6A
0461:  MOVF   69,W
0462:  MOVWF  6C
0463:  BTFSC  03.2
0464:  GOTO   4F9
0465:  MOVF   68,W
0466:  BSF    03.5
0467:  MOVWF  24
0468:  BCF    03.5
0469:  MOVF   67,W
046A:  BSF    03.5
046B:  MOVWF  23
046C:  BCF    03.5
046D:  MOVF   66,W
046E:  BSF    03.5
046F:  MOVWF  22
0470:  BCF    03.5
0471:  MOVF   65,W
0472:  BSF    03.5
0473:  MOVWF  21
0474:  CLRF   28
0475:  CLRF   27
0476:  MOVLW  20
0477:  MOVWF  26
0478:  MOVLW  82
0479:  MOVWF  25
047A:  MOVF   21,W
047B:  BTFSC  03.2
047C:  GOTO   4EA
047D:  MOVWF  29
047E:  MOVF   25,W
047F:  BTFSC  03.2
0480:  GOTO   4EA
0481:  ADDWF  29,F
0482:  BTFSC  03.0
0483:  GOTO   48B
0484:  MOVLW  7F
0485:  SUBWF  29,F
0486:  BTFSS  03.0
0487:  GOTO   4EA
0488:  BTFSC  03.2
0489:  GOTO   4EA
048A:  GOTO   48F
048B:  MOVLW  81
048C:  ADDWF  29,F
048D:  BTFSC  03.0
048E:  GOTO   4EA
048F:  MOVF   29,W
0490:  MOVWF  77
0491:  CLRF   78
0492:  CLRF   79
0493:  CLRF   7A
0494:  MOVF   22,W
0495:  MOVWF  2D
0496:  BSF    2D.7
0497:  MOVF   23,W
0498:  MOVWF  2C
0499:  MOVF   24,W
049A:  MOVWF  2B
049B:  MOVLW  18
049C:  MOVWF  29
049D:  CLRF   2A
049E:  BTFSS  2B.0
049F:  GOTO   4B8
04A0:  MOVF   28,W
04A1:  ADDWF  7A,F
04A2:  BTFSS  03.0
04A3:  GOTO   4AA
04A4:  INCF   79,F
04A5:  BTFSS  03.2
04A6:  GOTO   4AA
04A7:  INCF   78,F
04A8:  BTFSC  03.2
04A9:  BSF    2A.7
04AA:  MOVF   27,W
04AB:  ADDWF  79,F
04AC:  BTFSS  03.0
04AD:  GOTO   4B1
04AE:  INCF   78,F
04AF:  BTFSC  03.2
04B0:  BSF    2A.7
04B1:  MOVF   26,W
04B2:  MOVWF  23
04B3:  BSF    23.7
04B4:  MOVF   23,W
04B5:  ADDWF  78,F
04B6:  BTFSC  03.0
04B7:  BSF    2A.7
04B8:  RLF    2A,F
04B9:  RRF    78,F
04BA:  RRF    79,F
04BB:  RRF    7A,F
04BC:  RRF    2D,F
04BD:  RRF    2C,F
04BE:  RRF    2B,F
04BF:  BCF    03.0
04C0:  DECFSZ 29,F
04C1:  GOTO   49D
04C2:  MOVLW  01
04C3:  ADDWF  77,F
04C4:  BTFSC  03.0
04C5:  GOTO   4EA
04C6:  BTFSC  78.7
04C7:  GOTO   4CF
04C8:  RLF    2D,F
04C9:  RLF    7A,F
04CA:  RLF    79,F
04CB:  RLF    78,F
04CC:  DECF   77,F
04CD:  BTFSC  03.2
04CE:  GOTO   4EA
04CF:  BTFSS  2D.7
04D0:  GOTO   4E0
04D1:  INCF   7A,F
04D2:  BTFSS  03.2
04D3:  GOTO   4E0
04D4:  INCF   79,F
04D5:  BTFSS  03.2
04D6:  GOTO   4E0
04D7:  INCF   78,F
04D8:  BTFSS  03.2
04D9:  GOTO   4E0
04DA:  RRF    78,F
04DB:  RRF    79,F
04DC:  RRF    7A,F
04DD:  INCF   77,F
04DE:  BTFSC  03.2
04DF:  GOTO   4EA
04E0:  MOVF   22,W
04E1:  MOVWF  2A
04E2:  MOVF   26,W
04E3:  XORWF  2A,F
04E4:  BTFSS  2A.7
04E5:  GOTO   4E8
04E6:  BSF    78.7
04E7:  GOTO   4EE
04E8:  BCF    78.7
04E9:  GOTO   4EE
04EA:  CLRF   77
04EB:  CLRF   78
04EC:  CLRF   79
04ED:  CLRF   7A
04EE:  MOVF   7A,W
04EF:  BCF    03.5
04F0:  MOVWF  68
04F1:  MOVF   79,W
04F2:  MOVWF  67
04F3:  MOVF   78,W
04F4:  MOVWF  66
04F5:  MOVF   77,W
04F6:  MOVWF  65
04F7:  DECFSZ 6C,F
04F8:  GOTO   465
04F9:  MOVF   68,W
04FA:  BSF    03.5
04FB:  MOVWF  24
04FC:  BCF    03.5
04FD:  MOVF   67,W
04FE:  BSF    03.5
04FF:  MOVWF  23
0500:  BCF    03.5
0501:  MOVF   66,W
0502:  BSF    03.5
0503:  MOVWF  22
0504:  BCF    03.5
0505:  MOVF   65,W
0506:  BSF    03.5
0507:  MOVWF  21
0508:  MOVF   21,W
0509:  SUBLW  B6
050A:  MOVWF  21
050B:  CLRF   7A
050C:  MOVF   22,W
050D:  MOVWF  25
050E:  BSF    22.7
050F:  BCF    03.0
0510:  RRF    22,F
0511:  RRF    23,F
0512:  RRF    24,F
0513:  RRF    7A,F
0514:  RRF    79,F
0515:  RRF    78,F
0516:  RRF    77,F
0517:  DECFSZ 21,F
0518:  GOTO   50F
0519:  BTFSS  25.7
051A:  GOTO   526
051B:  COMF   77,F
051C:  COMF   78,F
051D:  COMF   79,F
051E:  COMF   7A,F
051F:  INCF   77,F
0520:  BTFSC  03.2
0521:  INCF   78,F
0522:  BTFSC  03.2
0523:  INCF   79,F
0524:  BTFSC  03.2
0525:  INCF   7A,F
0526:  MOVF   7A,W
0527:  BCF    03.5
0528:  MOVWF  68
0529:  MOVF   79,W
052A:  MOVWF  67
052B:  MOVF   78,W
052C:  MOVWF  66
052D:  MOVF   77,W
052E:  MOVWF  65
052F:  BTFSS  68.7
0530:  GOTO   53E
0531:  DECF   6A,F
0532:  BSF    6A.5
0533:  COMF   65,F
0534:  COMF   66,F
0535:  COMF   67,F
0536:  COMF   68,F
0537:  INCF   65,F
0538:  BTFSC  03.2
0539:  INCF   66,F
053A:  BTFSC  03.2
053B:  INCF   67,F
053C:  BTFSC  03.2
053D:  INCF   68,F
053E:  MOVLW  3B
053F:  MOVWF  71
0540:  MOVLW  9A
0541:  MOVWF  70
0542:  MOVLW  CA
0543:  MOVWF  6F
0544:  CLRF   6E
0545:  MOVLW  0A
0546:  MOVWF  6C
0547:  MOVF   69,W
0548:  BTFSC  03.2
0549:  INCF   6A,F
054A:  BSF    03.1
054B:  MOVLW  65
054C:  MOVWF  04
054D:  BCF    03.7
054E:  MOVF   68,W
054F:  BSF    03.5
0550:  MOVWF  24
0551:  BCF    03.5
0552:  MOVF   67,W
0553:  BSF    03.5
0554:  MOVWF  23
0555:  BCF    03.5
0556:  MOVF   66,W
0557:  BSF    03.5
0558:  MOVWF  22
0559:  BCF    03.5
055A:  MOVF   65,W
055B:  BSF    03.5
055C:  MOVWF  21
055D:  MOVF   71,W
055E:  MOVWF  28
055F:  MOVF   70,W
0560:  MOVWF  27
0561:  BCF    03.5
0562:  MOVF   6F,W
0563:  BSF    03.5
0564:  MOVWF  26
0565:  BCF    03.5
0566:  MOVF   6E,W
0567:  BSF    03.5
0568:  MOVWF  25
0569:  BTFSC  03.1
056A:  GOTO   56E
056B:  MOVLW  A9
056C:  MOVWF  04
056D:  BCF    03.7
056E:  CLRF   77
056F:  CLRF   78
0570:  CLRF   79
0571:  CLRF   7A
0572:  CLRF   29
0573:  CLRF   2A
0574:  CLRF   2B
0575:  CLRF   2C
0576:  MOVF   28,W
0577:  IORWF  27,W
0578:  IORWF  26,W
0579:  IORWF  25,W
057A:  BTFSC  03.2
057B:  GOTO   5AC
057C:  MOVLW  20
057D:  MOVWF  2D
057E:  BCF    03.0
057F:  RLF    21,F
0580:  RLF    22,F
0581:  RLF    23,F
0582:  RLF    24,F
0583:  RLF    29,F
0584:  RLF    2A,F
0585:  RLF    2B,F
0586:  RLF    2C,F
0587:  MOVF   28,W
0588:  SUBWF  2C,W
0589:  BTFSS  03.2
058A:  GOTO   595
058B:  MOVF   27,W
058C:  SUBWF  2B,W
058D:  BTFSS  03.2
058E:  GOTO   595
058F:  MOVF   26,W
0590:  SUBWF  2A,W
0591:  BTFSS  03.2
0592:  GOTO   595
0593:  MOVF   25,W
0594:  SUBWF  29,W
0595:  BTFSS  03.0
0596:  GOTO   5A6
0597:  MOVF   25,W
0598:  SUBWF  29,F
0599:  MOVF   26,W
059A:  BTFSS  03.0
059B:  INCFSZ 26,W
059C:  SUBWF  2A,F
059D:  MOVF   27,W
059E:  BTFSS  03.0
059F:  INCFSZ 27,W
05A0:  SUBWF  2B,F
05A1:  MOVF   28,W
05A2:  BTFSS  03.0
05A3:  INCFSZ 28,W
05A4:  SUBWF  2C,F
05A5:  BSF    03.0
05A6:  RLF    77,F
05A7:  RLF    78,F
05A8:  RLF    79,F
05A9:  RLF    7A,F
05AA:  DECFSZ 2D,F
05AB:  GOTO   57E
05AC:  MOVF   29,W
05AD:  MOVWF  00
05AE:  INCF   04,F
05AF:  MOVF   2A,W
05B0:  MOVWF  00
05B1:  INCF   04,F
05B2:  MOVF   2B,W
05B3:  MOVWF  00
05B4:  INCF   04,F
05B5:  MOVF   2C,W
05B6:  MOVWF  00
05B7:  MOVF   78,W
05B8:  MOVF   77,F
05B9:  BTFSS  03.2
05BA:  GOTO   5D2
05BB:  BCF    03.5
05BC:  INCF   69,W
05BD:  SUBWF  6C,W
05BE:  BTFSS  03.2
05BF:  GOTO   5C2
05C0:  BSF    03.5
05C1:  GOTO   5D2
05C2:  MOVF   6A,W
05C3:  BTFSC  03.2
05C4:  GOTO   5D5
05C5:  ANDLW  0F
05C6:  SUBWF  6C,W
05C7:  BTFSC  03.2
05C8:  GOTO   5CB
05C9:  BTFSC  03.0
05CA:  GOTO   60D
05CB:  BTFSC  6A.7
05CC:  GOTO   60D
05CD:  BTFSC  6A.6
05CE:  GOTO   5D5
05CF:  MOVLW  20
05D0:  GOTO   607
05D1:  BSF    03.5
05D2:  MOVLW  20
05D3:  BCF    03.5
05D4:  ANDWF  6A,F
05D5:  BTFSS  6A.5
05D6:  GOTO   5E5
05D7:  BCF    6A.5
05D8:  MOVF   69,W
05D9:  BTFSS  03.2
05DA:  DECF   6A,F
05DB:  MOVF   77,W
05DC:  MOVWF  6A
05DD:  MOVLW  2D
05DE:  BSF    03.5
05DF:  MOVWF  21
05E0:  BCF    03.5
05E1:  CALL   18A
05E2:  MOVF   6A,W
05E3:  MOVWF  77
05E4:  CLRF   6A
05E5:  MOVF   69,W
05E6:  SUBWF  6C,W
05E7:  BTFSS  03.2
05E8:  GOTO   5F5
05E9:  MOVF   77,W
05EA:  MOVWF  6A
05EB:  MOVLW  2E
05EC:  BSF    03.5
05ED:  MOVWF  21
05EE:  BCF    03.5
05EF:  CALL   18A
05F0:  MOVF   6A,W
05F1:  MOVWF  77
05F2:  MOVLW  20
05F3:  ANDWF  6A,F
05F4:  MOVLW  00
05F5:  MOVLW  30
05F6:  BTFSS  6A.5
05F7:  GOTO   607
05F8:  BCF    6A.5
05F9:  MOVF   69,W
05FA:  BTFSS  03.2
05FB:  DECF   6A,F
05FC:  MOVF   77,W
05FD:  MOVWF  6A
05FE:  MOVLW  2D
05FF:  BSF    03.5
0600:  MOVWF  21
0601:  BCF    03.5
0602:  CALL   18A
0603:  MOVF   6A,W
0604:  MOVWF  77
0605:  CLRF   6A
0606:  MOVLW  30
0607:  ADDWF  77,F
0608:  MOVF   77,W
0609:  BSF    03.5
060A:  MOVWF  21
060B:  BCF    03.5
060C:  CALL   18A
060D:  BCF    03.1
060E:  MOVF   71,W
060F:  BSF    03.5
0610:  MOVWF  24
0611:  MOVF   70,W
0612:  MOVWF  23
0613:  BCF    03.5
0614:  MOVF   6F,W
0615:  BSF    03.5
0616:  MOVWF  22
0617:  BCF    03.5
0618:  MOVF   6E,W
0619:  BSF    03.5
061A:  MOVWF  21
061B:  CLRF   28
061C:  CLRF   27
061D:  CLRF   26
061E:  MOVLW  0A
061F:  MOVWF  25
0620:  BTFSC  03.1
0621:  GOTO   625
0622:  MOVLW  A9
0623:  MOVWF  04
0624:  BCF    03.7
0625:  CLRF   77
0626:  CLRF   78
0627:  CLRF   79
0628:  CLRF   7A
0629:  CLRF   29
062A:  CLRF   2A
062B:  CLRF   2B
062C:  CLRF   2C
062D:  MOVF   28,W
062E:  IORWF  27,W
062F:  IORWF  26,W
0630:  IORWF  25,W
0631:  BTFSC  03.2
0632:  GOTO   663
0633:  MOVLW  20
0634:  MOVWF  2D
0635:  BCF    03.0
0636:  RLF    21,F
0637:  RLF    22,F
0638:  RLF    23,F
0639:  RLF    24,F
063A:  RLF    29,F
063B:  RLF    2A,F
063C:  RLF    2B,F
063D:  RLF    2C,F
063E:  MOVF   28,W
063F:  SUBWF  2C,W
0640:  BTFSS  03.2
0641:  GOTO   64C
0642:  MOVF   27,W
0643:  SUBWF  2B,W
0644:  BTFSS  03.2
0645:  GOTO   64C
0646:  MOVF   26,W
0647:  SUBWF  2A,W
0648:  BTFSS  03.2
0649:  GOTO   64C
064A:  MOVF   25,W
064B:  SUBWF  29,W
064C:  BTFSS  03.0
064D:  GOTO   65D
064E:  MOVF   25,W
064F:  SUBWF  29,F
0650:  MOVF   26,W
0651:  BTFSS  03.0
0652:  INCFSZ 26,W
0653:  SUBWF  2A,F
0654:  MOVF   27,W
0655:  BTFSS  03.0
0656:  INCFSZ 27,W
0657:  SUBWF  2B,F
0658:  MOVF   28,W
0659:  BTFSS  03.0
065A:  INCFSZ 28,W
065B:  SUBWF  2C,F
065C:  BSF    03.0
065D:  RLF    77,F
065E:  RLF    78,F
065F:  RLF    79,F
0660:  RLF    7A,F
0661:  DECFSZ 2D,F
0662:  GOTO   635
0663:  MOVF   29,W
0664:  MOVWF  00
0665:  INCF   04,F
0666:  MOVF   2A,W
0667:  MOVWF  00
0668:  INCF   04,F
0669:  MOVF   2B,W
066A:  MOVWF  00
066B:  INCF   04,F
066C:  MOVF   2C,W
066D:  MOVWF  00
066E:  MOVF   7A,W
066F:  MOVWF  71
0670:  MOVF   79,W
0671:  MOVWF  70
0672:  MOVF   78,W
0673:  BCF    03.5
0674:  MOVWF  6F
0675:  MOVF   77,W
0676:  MOVWF  6E
0677:  DECFSZ 6C,F
0678:  GOTO   54A
0679:  RETURN
067A:  DATA 2A,15
067B:  DATA 2A,15
067C:  DATA 20,23
067D:  DATA 41,26
067E:  DATA D4,20
067F:  DATA 20,15
0680:  DATA 2A,15
0681:  DATA 2A,00
0682:  DATA 0A,10
0683:  DATA A0,21
0684:  DATA 41,29
0685:  DATA C7,20
0686:  DATA A0,12
0687:  DATA 2E,19
0688:  DATA 66,10
0689:  DATA A5,12
068A:  DATA 00,00
*
06A6:  BCF    03.6
06A7:  MOVF   0B,W
06A8:  MOVWF  65
06A9:  BCF    0B.7
06AA:  BSF    03.5
06AB:  BSF    03.6
06AC:  BSF    0C.7
06AD:  BSF    0C.0
06AE:  NOP
06AF:  NOP
06B0:  BCF    03.5
06B1:  BCF    03.6
06B2:  BTFSC  65.7
06B3:  BSF    0B.7
06B4:  BSF    03.6
06B5:  MOVF   0C,W
06B6:  ANDLW  7F
06B7:  BTFSC  03.2
06B8:  GOTO   6FD
06B9:  BCF    03.6
06BA:  MOVWF  65
06BB:  BSF    03.6
06BC:  MOVF   0D,W
06BD:  BCF    03.6
06BE:  MOVWF  66
06BF:  BSF    03.6
06C0:  MOVF   0F,W
06C1:  BCF    03.6
06C2:  MOVWF  67
06C3:  MOVF   65,W
06C4:  BSF    03.5
06C5:  MOVWF  21
06C6:  BCF    03.5
06C7:  CALL   18A
06C8:  MOVF   66,W
06C9:  BSF    03.6
06CA:  MOVWF  0D
06CB:  BCF    03.6
06CC:  MOVF   67,W
06CD:  BSF    03.6
06CE:  MOVWF  0F
06CF:  BCF    03.6
06D0:  MOVF   0B,W
06D1:  MOVWF  68
06D2:  BCF    0B.7
06D3:  BSF    03.5
06D4:  BSF    03.6
06D5:  BSF    0C.7
06D6:  BSF    0C.0
06D7:  NOP
06D8:  NOP
06D9:  BCF    03.5
06DA:  BCF    03.6
06DB:  BTFSC  68.7
06DC:  BSF    0B.7
06DD:  BSF    03.6
06DE:  RLF    0C,W
06DF:  RLF    0E,W
06E0:  ANDLW  7F
06E1:  BTFSC  03.2
06E2:  GOTO   6FD
06E3:  BCF    03.6
06E4:  MOVWF  65
06E5:  BSF    03.6
06E6:  MOVF   0D,W
06E7:  BCF    03.6
06E8:  MOVWF  66
06E9:  BSF    03.6
06EA:  MOVF   0F,W
06EB:  BCF    03.6
06EC:  MOVWF  67
06ED:  MOVF   65,W
06EE:  BSF    03.5
06EF:  MOVWF  21
06F0:  BCF    03.5
06F1:  CALL   18A
06F2:  MOVF   66,W
06F3:  BSF    03.6
06F4:  MOVWF  0D
06F5:  BCF    03.6
06F6:  MOVF   67,W
06F7:  BSF    03.6
06F8:  MOVWF  0F
06F9:  INCF   0D,F
06FA:  BTFSC  03.2
06FB:  INCF   0F,F
06FC:  GOTO   6A6
*
0701:  BCF    03.6
0702:  MOVF   0B,W
0703:  MOVWF  65
0704:  BCF    0B.7
0705:  BSF    03.5
0706:  BSF    03.6
0707:  BSF    0C.7
0708:  BSF    0C.0
0709:  NOP
070A:  NOP
070B:  BCF    03.5
070C:  BCF    03.6
070D:  BTFSC  65.7
070E:  BSF    0B.7
070F:  BSF    03.6
0710:  MOVF   0C,W
0711:  ANDLW  7F
0712:  BTFSC  03.2
0713:  GOTO   758
0714:  BCF    03.6
0715:  MOVWF  65
0716:  BSF    03.6
0717:  MOVF   0D,W
0718:  BCF    03.6
0719:  MOVWF  66
071A:  BSF    03.6
071B:  MOVF   0F,W
071C:  BCF    03.6
071D:  MOVWF  67
071E:  MOVF   65,W
071F:  BSF    03.5
0720:  MOVWF  21
0721:  BCF    03.5
0722:  CALL   18A
0723:  MOVF   66,W
0724:  BSF    03.6
0725:  MOVWF  0D
0726:  BCF    03.6
0727:  MOVF   67,W
0728:  BSF    03.6
0729:  MOVWF  0F
072A:  BCF    03.6
072B:  MOVF   0B,W
072C:  MOVWF  68
072D:  BCF    0B.7
072E:  BSF    03.5
072F:  BSF    03.6
0730:  BSF    0C.7
0731:  BSF    0C.0
0732:  NOP
0733:  NOP
0734:  BCF    03.5
0735:  BCF    03.6
0736:  BTFSC  68.7
0737:  BSF    0B.7
0738:  BSF    03.6
0739:  RLF    0C,W
073A:  RLF    0E,W
073B:  ANDLW  7F
073C:  BTFSC  03.2
073D:  GOTO   758
073E:  BCF    03.6
073F:  MOVWF  65
0740:  BSF    03.6
0741:  MOVF   0D,W
0742:  BCF    03.6
0743:  MOVWF  66
0744:  BSF    03.6
0745:  MOVF   0F,W
0746:  BCF    03.6
0747:  MOVWF  67
0748:  MOVF   65,W
0749:  BSF    03.5
074A:  MOVWF  21
074B:  BCF    03.5
074C:  CALL   18A
074D:  MOVF   66,W
074E:  BSF    03.6
074F:  MOVWF  0D
0750:  BCF    03.6
0751:  MOVF   67,W
0752:  BSF    03.6
0753:  MOVWF  0F
0754:  INCF   0D,F
0755:  BTFSC  03.2
0756:  INCF   0F,F
0757:  GOTO   701
0758:  BCF    03.6
*
075D:  DATA 2A,15
075E:  DATA 2A,15
075F:  DATA AA,20
0760:  DATA CC,22
0761:  DATA 52,2A
0762:  DATA 41,15
0763:  DATA 2A,15
0764:  DATA 2A,15
0765:  DATA 00,01
0766:  DATA 0A,2A
0767:  DATA C5,26
0768:  DATA D0,22
0769:  DATA D2,20
076A:  DATA D4,2A
076B:  DATA D2,20
076C:  DATA 00,00
076D:  DATA C2,30
076E:  DATA F4,32
076F:  DATA F2,34
0770:  DATA 61,10
0771:  DATA 31,00
0772:  DATA 0A,2A
0773:  DATA 3A,10
0774:  DATA 25,17
0775:  DATA 32,33
0776:  DATA 20,2B
0777:  DATA 00,01
0778:  DATA C2,30
0779:  DATA F4,32
077A:  DATA F2,34
077B:  DATA 61,10
077C:  DATA 32,00
077D:  DATA 0A,2A
077E:  DATA 65,37
077F:  DATA F3,30
0780:  DATA 6F,10
0781:  DATA 32,1D
0782:  DATA A0,12
0783:  DATA 66,10
0784:  DATA 56,00
0785:  DATA C2,30
0786:  DATA F4,32
0787:  DATA F2,34
0788:  DATA 61,10
0789:  DATA 33,00
078A:  DATA 0A,2A
078B:  DATA 65,37
078C:  DATA F3,30
078D:  DATA 6F,1D
078E:  DATA A0,12
078F:  DATA 66,10
0790:  DATA 56,00
0791:  DATA C2,30
0792:  DATA F4,32
0793:  DATA F2,34
0794:  DATA 61,10
0795:  DATA 34,00
0796:  DATA 0A,2A
0797:  DATA 65,37
0798:  DATA F3,30
0799:  DATA 6F,1D
079A:  DATA A0,12
079B:  DATA 66,10
079C:  DATA 56,00
079D:  DATA 8A,2A
079E:  DATA 3A,10
079F:  DATA 25,33
07A0:  DATA A0,12
07A1:  DATA 25,00
*
0908:  MOVF   21,W
0909:  BTFSC  03.2
090A:  GOTO   178
090B:  MOVWF  29
090C:  MOVF   25,W
090D:  BTFSC  03.2
090E:  GOTO   178
090F:  ADDWF  29,F
0910:  BTFSC  03.0
0911:  GOTO   119
0912:  MOVLW  7F
0913:  SUBWF  29,F
0914:  BTFSS  03.0
0915:  GOTO   178
0916:  BTFSC  03.2
0917:  GOTO   178
0918:  GOTO   11D
0919:  MOVLW  81
091A:  ADDWF  29,F
091B:  BTFSC  03.0
091C:  GOTO   178
091D:  MOVF   29,W
091E:  MOVWF  77
091F:  CLRF   78
0920:  CLRF   79
0921:  CLRF   7A
0922:  MOVF   22,W
0923:  MOVWF  2D
0924:  BSF    2D.7
0925:  MOVF   23,W
0926:  MOVWF  2C
0927:  MOVF   24,W
0928:  MOVWF  2B
0929:  MOVLW  18
092A:  MOVWF  29
092B:  CLRF   2A
092C:  BTFSS  2B.0
092D:  GOTO   146
092E:  MOVF   28,W
092F:  ADDWF  7A,F
0930:  BTFSS  03.0
0931:  GOTO   138
0932:  INCF   79,F
0933:  BTFSS  03.2
0934:  GOTO   138
0935:  INCF   78,F
0936:  BTFSC  03.2
0937:  BSF    2A.7
0938:  MOVF   27,W
0939:  ADDWF  79,F
093A:  BTFSS  03.0
093B:  GOTO   13F
093C:  INCF   78,F
093D:  BTFSC  03.2
093E:  BSF    2A.7
093F:  MOVF   26,W
0940:  MOVWF  23
0941:  BSF    23.7
0942:  MOVF   23,W
0943:  ADDWF  78,F
0944:  BTFSC  03.0
0945:  BSF    2A.7
0946:  RLF    2A,F
0947:  RRF    78,F
0948:  RRF    79,F
0949:  RRF    7A,F
094A:  RRF    2D,F
094B:  RRF    2C,F
094C:  RRF    2B,F
094D:  BCF    03.0
094E:  DECFSZ 29,F
094F:  GOTO   12B
0950:  MOVLW  01
0951:  ADDWF  77,F
0952:  BTFSC  03.0
0953:  GOTO   178
0954:  BTFSC  78.7
0955:  GOTO   15D
0956:  RLF    2D,F
0957:  RLF    7A,F
0958:  RLF    79,F
0959:  RLF    78,F
095A:  DECF   77,F
095B:  BTFSC  03.2
095C:  GOTO   178
095D:  BTFSS  2D.7
095E:  GOTO   16E
095F:  INCF   7A,F
0960:  BTFSS  03.2
0961:  GOTO   16E
0962:  INCF   79,F
0963:  BTFSS  03.2
0964:  GOTO   16E
0965:  INCF   78,F
0966:  BTFSS  03.2
0967:  GOTO   16E
0968:  RRF    78,F
0969:  RRF    79,F
096A:  RRF    7A,F
096B:  INCF   77,F
096C:  BTFSC  03.2
096D:  GOTO   178
096E:  MOVF   22,W
096F:  MOVWF  2A
0970:  MOVF   26,W
0971:  XORWF  2A,F
0972:  BTFSS  2A.7
0973:  GOTO   176
0974:  BSF    78.7
0975:  GOTO   17C
0976:  BCF    78.7
0977:  GOTO   17C
0978:  CLRF   77
0979:  CLRF   78
097A:  CLRF   79
097B:  CLRF   7A
*
0993:  MOVF   69,W
0994:  BTFSC  03.2
0995:  GOTO   258
0996:  MOVWF  75
0997:  MOVF   6D,W
0998:  BTFSC  03.2
0999:  GOTO   258
099A:  SUBWF  75,F
099B:  BTFSS  03.0
099C:  GOTO   1A2
099D:  MOVLW  7F
099E:  ADDWF  75,F
099F:  BTFSC  03.0
09A0:  GOTO   258
09A1:  GOTO   1A8
09A2:  MOVLW  81
09A3:  SUBWF  75,F
09A4:  BTFSS  03.0
09A5:  GOTO   258
09A6:  BTFSC  03.2
09A7:  GOTO   258
09A8:  MOVF   75,W
09A9:  MOVWF  77
09AA:  CLRF   78
09AB:  CLRF   79
09AC:  CLRF   7A
09AD:  CLRF   74
09AE:  MOVF   6A,W
09AF:  MOVWF  73
09B0:  BSF    73.7
09B1:  MOVF   6B,W
09B2:  MOVWF  72
09B3:  MOVF   6C,W
09B4:  MOVWF  71
09B5:  MOVLW  19
09B6:  MOVWF  75
09B7:  MOVF   70,W
09B8:  SUBWF  71,F
09B9:  BTFSC  03.0
09BA:  GOTO   1CB
09BB:  MOVLW  01
09BC:  SUBWF  72,F
09BD:  BTFSC  03.0
09BE:  GOTO   1CB
09BF:  SUBWF  73,F
09C0:  BTFSC  03.0
09C1:  GOTO   1CB
09C2:  SUBWF  74,F
09C3:  BTFSC  03.0
09C4:  GOTO   1CB
09C5:  INCF   74,F
09C6:  INCF   73,F
09C7:  INCF   72,F
09C8:  MOVF   70,W
09C9:  ADDWF  71,F
09CA:  GOTO   1FD
09CB:  MOVF   6F,W
09CC:  SUBWF  72,F
09CD:  BTFSC  03.0
09CE:  GOTO   1E6
09CF:  MOVLW  01
09D0:  SUBWF  73,F
09D1:  BTFSC  03.0
09D2:  GOTO   1E6
09D3:  SUBWF  74,F
09D4:  BTFSC  03.0
09D5:  GOTO   1E6
09D6:  INCF   74,F
09D7:  INCF   73,F
09D8:  MOVF   6F,W
09D9:  ADDWF  72,F
09DA:  MOVF   70,W
09DB:  ADDWF  71,F
09DC:  BTFSS  03.0
09DD:  GOTO   1FD
09DE:  INCF   72,F
09DF:  BTFSS  03.2
09E0:  GOTO   1FD
09E1:  INCF   73,F
09E2:  BTFSS  03.2
09E3:  GOTO   1FD
09E4:  INCF   74,F
09E5:  GOTO   1FD
09E6:  MOVF   6E,W
09E7:  IORLW  80
09E8:  SUBWF  73,F
09E9:  BTFSC  03.0
09EA:  GOTO   1FC
09EB:  MOVLW  01
09EC:  SUBWF  74,F
09ED:  BTFSC  03.0
09EE:  GOTO   1FC
09EF:  INCF   74,F
09F0:  MOVF   6E,W
09F1:  IORLW  80
09F2:  ADDWF  73,F
09F3:  MOVF   6F,W
09F4:  ADDWF  72,F
09F5:  BTFSS  03.0
09F6:  GOTO   1DA
09F7:  INCF   73,F
09F8:  BTFSS  03.2
09F9:  GOTO   1DA
09FA:  INCF   74,F
09FB:  GOTO   1DA
09FC:  BSF    7A.0
09FD:  DECFSZ 75,F
09FE:  GOTO   200
09FF:  GOTO   20B
0A00:  BCF    03.0
0A01:  RLF    71,F
0A02:  RLF    72,F
0A03:  RLF    73,F
0A04:  RLF    74,F
0A05:  BCF    03.0
0A06:  RLF    7A,F
0A07:  RLF    79,F
0A08:  RLF    78,F
0A09:  RLF    76,F
0A0A:  GOTO   1B7
0A0B:  BTFSS  76.0
0A0C:  GOTO   213
0A0D:  BCF    03.0
0A0E:  RRF    78,F
0A0F:  RRF    79,F
0A10:  RRF    7A,F
0A11:  RRF    76,F
0A12:  GOTO   216
0A13:  DECF   77,F
0A14:  BTFSC  03.2
0A15:  GOTO   258
0A16:  BTFSC  76.7
0A17:  GOTO   23F
0A18:  BCF    03.0
0A19:  RLF    71,F
0A1A:  RLF    72,F
0A1B:  RLF    73,F
0A1C:  RLF    74,F
0A1D:  MOVF   70,W
0A1E:  SUBWF  71,F
0A1F:  BTFSC  03.0
0A20:  GOTO   22B
0A21:  MOVLW  01
0A22:  SUBWF  72,F
0A23:  BTFSC  03.0
0A24:  GOTO   22B
0A25:  SUBWF  73,F
0A26:  BTFSC  03.0
0A27:  GOTO   22B
0A28:  SUBWF  74,F
0A29:  BTFSS  03.0
0A2A:  GOTO   24E
0A2B:  MOVF   6F,W
0A2C:  SUBWF  72,F
0A2D:  BTFSC  03.0
0A2E:  GOTO   236
0A2F:  MOVLW  01
0A30:  SUBWF  73,F
0A31:  BTFSC  03.0
0A32:  GOTO   236
0A33:  SUBWF  74,F
0A34:  BTFSS  03.0
0A35:  GOTO   24E
0A36:  MOVF   6E,W
0A37:  IORLW  80
0A38:  SUBWF  73,F
0A39:  BTFSC  03.0
0A3A:  GOTO   23F
0A3B:  MOVLW  01
0A3C:  SUBWF  74,F
0A3D:  BTFSS  03.0
0A3E:  GOTO   24E
0A3F:  INCF   7A,F
0A40:  BTFSS  03.2
0A41:  GOTO   24E
0A42:  INCF   79,F
0A43:  BTFSS  03.2
0A44:  GOTO   24E
0A45:  INCF   78,F
0A46:  BTFSS  03.2
0A47:  GOTO   24E
0A48:  INCF   77,F
0A49:  BTFSC  03.2
0A4A:  GOTO   258
0A4B:  RRF    78,F
0A4C:  RRF    79,F
0A4D:  RRF    7A,F
0A4E:  MOVF   6A,W
0A4F:  MOVWF  75
0A50:  MOVF   6E,W
0A51:  XORWF  75,F
0A52:  BTFSS  75.7
0A53:  GOTO   256
0A54:  BSF    78.7
0A55:  GOTO   25C
0A56:  BCF    78.7
0A57:  GOTO   25C
0A58:  CLRF   77
0A59:  CLRF   78
0A5A:  CLRF   79
0A5B:  CLRF   7A
*
0A69:  BCF    03.6
0A6A:  MOVF   0B,W
0A6B:  MOVWF  65
0A6C:  BCF    0B.7
0A6D:  BSF    03.5
0A6E:  BSF    03.6
0A6F:  BSF    0C.7
0A70:  BSF    0C.0
0A71:  NOP
0A72:  NOP
0A73:  BCF    03.5
0A74:  BCF    03.6
0A75:  BTFSC  65.7
0A76:  BSF    0B.7
0A77:  BSF    03.6
0A78:  MOVF   0C,W
0A79:  ANDLW  7F
0A7A:  BTFSC  03.2
0A7B:  GOTO   2C4
0A7C:  BCF    03.6
0A7D:  MOVWF  65
0A7E:  BSF    03.6
0A7F:  MOVF   0D,W
0A80:  BCF    03.6
0A81:  MOVWF  66
0A82:  BSF    03.6
0A83:  MOVF   0F,W
0A84:  BCF    03.6
0A85:  MOVWF  67
0A86:  MOVF   65,W
0A87:  BSF    03.5
0A88:  MOVWF  21
0A89:  BCF    0A.3
0A8A:  BCF    03.5
0A8B:  CALL   18A
0A8C:  BSF    0A.3
0A8D:  MOVF   66,W
0A8E:  BSF    03.6
0A8F:  MOVWF  0D
0A90:  BCF    03.6
0A91:  MOVF   67,W
0A92:  BSF    03.6
0A93:  MOVWF  0F
0A94:  BCF    03.6
0A95:  MOVF   0B,W
0A96:  MOVWF  68
0A97:  BCF    0B.7
0A98:  BSF    03.5
0A99:  BSF    03.6
0A9A:  BSF    0C.7
0A9B:  BSF    0C.0
0A9C:  NOP
0A9D:  NOP
0A9E:  BCF    03.5
0A9F:  BCF    03.6
0AA0:  BTFSC  68.7
0AA1:  BSF    0B.7
0AA2:  BSF    03.6
0AA3:  RLF    0C,W
0AA4:  RLF    0E,W
0AA5:  ANDLW  7F
0AA6:  BTFSC  03.2
0AA7:  GOTO   2C4
0AA8:  BCF    03.6
0AA9:  MOVWF  65
0AAA:  BSF    03.6
0AAB:  MOVF   0D,W
0AAC:  BCF    03.6
0AAD:  MOVWF  66
0AAE:  BSF    03.6
0AAF:  MOVF   0F,W
0AB0:  BCF    03.6
0AB1:  MOVWF  67
0AB2:  MOVF   65,W
0AB3:  BSF    03.5
0AB4:  MOVWF  21
0AB5:  BCF    0A.3
0AB6:  BCF    03.5
0AB7:  CALL   18A
0AB8:  BSF    0A.3
0AB9:  MOVF   66,W
0ABA:  BSF    03.6
0ABB:  MOVWF  0D
0ABC:  BCF    03.6
0ABD:  MOVF   67,W
0ABE:  BSF    03.6
0ABF:  MOVWF  0F
0AC0:  INCF   0D,F
0AC1:  BTFSC  03.2
0AC2:  INCF   0F,F
0AC3:  GOTO   269
*
0ACC:  MOVF   0B,W
0ACD:  MOVWF  66
0ACE:  BCF    0B.7
0ACF:  BSF    03.5
0AD0:  BSF    03.6
0AD1:  BSF    0C.7
0AD2:  BSF    0C.0
0AD3:  NOP
0AD4:  NOP
0AD5:  BCF    03.5
0AD6:  BCF    03.6
0AD7:  BTFSC  66.7
0AD8:  BSF    0B.7
0AD9:  BTFSC  03.0
0ADA:  GOTO   307
0ADB:  BSF    03.6
0ADC:  MOVF   0C,W
0ADD:  ANDLW  7F
0ADE:  BCF    03.6
0ADF:  MOVWF  66
0AE0:  BSF    03.6
0AE1:  MOVF   0D,W
0AE2:  BCF    03.6
0AE3:  MOVWF  67
0AE4:  BSF    03.6
0AE5:  MOVF   0F,W
0AE6:  BCF    03.6
0AE7:  MOVWF  68
0AE8:  MOVF   66,W
0AE9:  BSF    03.5
0AEA:  MOVWF  21
0AEB:  BCF    0A.3
0AEC:  BCF    03.5
0AED:  CALL   18A
0AEE:  BSF    0A.3
0AEF:  MOVF   67,W
0AF0:  BSF    03.6
0AF1:  MOVWF  0D
0AF2:  BCF    03.6
0AF3:  MOVF   68,W
0AF4:  BSF    03.6
0AF5:  MOVWF  0F
0AF6:  BCF    03.6
0AF7:  MOVF   0B,W
0AF8:  MOVWF  69
0AF9:  BCF    0B.7
0AFA:  BSF    03.5
0AFB:  BSF    03.6
0AFC:  BSF    0C.7
0AFD:  BSF    0C.0
0AFE:  NOP
0AFF:  NOP
0B00:  BCF    03.5
0B01:  BCF    03.6
0B02:  BTFSC  69.7
0B03:  BSF    0B.7
0B04:  DECFSZ 65,F
0B05:  GOTO   307
0B06:  GOTO   32A
0B07:  BSF    03.6
0B08:  RLF    0C,W
0B09:  RLF    0E,W
0B0A:  ANDLW  7F
0B0B:  BCF    03.6
0B0C:  MOVWF  66
0B0D:  BSF    03.6
0B0E:  MOVF   0D,W
0B0F:  BCF    03.6
0B10:  MOVWF  67
0B11:  BSF    03.6
0B12:  MOVF   0F,W
0B13:  BCF    03.6
0B14:  MOVWF  68
0B15:  MOVF   66,W
0B16:  BSF    03.5
0B17:  MOVWF  21
0B18:  BCF    0A.3
0B19:  BCF    03.5
0B1A:  CALL   18A
0B1B:  BSF    0A.3
0B1C:  MOVF   67,W
0B1D:  BSF    03.6
0B1E:  MOVWF  0D
0B1F:  BCF    03.6
0B20:  MOVF   68,W
0B21:  BSF    03.6
0B22:  MOVWF  0F
0B23:  INCF   0D,F
0B24:  BTFSC  03.2
0B25:  INCF   0F,F
0B26:  BCF    03.0
0B27:  BCF    03.6
0B28:  DECFSZ 65,F
0B29:  GOTO   2CC
*
1019:  BCF    03.6
101A:  MOVF   0B,W
101B:  MOVWF  65
101C:  BCF    0B.7
101D:  BSF    03.5
101E:  BSF    03.6
101F:  BSF    0C.7
1020:  BSF    0C.0
1021:  NOP
1022:  NOP
1023:  BCF    03.5
1024:  BCF    03.6
1025:  BTFSC  65.7
1026:  BSF    0B.7
1027:  BSF    03.6
1028:  MOVF   0C,W
1029:  ANDLW  7F
102A:  BTFSC  03.2
102B:  GOTO   074
102C:  BCF    03.6
102D:  MOVWF  65
102E:  BSF    03.6
102F:  MOVF   0D,W
1030:  BCF    03.6
1031:  MOVWF  66
1032:  BSF    03.6
1033:  MOVF   0F,W
1034:  BCF    03.6
1035:  MOVWF  67
1036:  MOVF   65,W
1037:  BSF    03.5
1038:  MOVWF  21
1039:  BCF    0A.4
103A:  BCF    03.5
103B:  CALL   18A
103C:  BSF    0A.4
103D:  MOVF   66,W
103E:  BSF    03.6
103F:  MOVWF  0D
1040:  BCF    03.6
1041:  MOVF   67,W
1042:  BSF    03.6
1043:  MOVWF  0F
1044:  BCF    03.6
1045:  MOVF   0B,W
1046:  MOVWF  68
1047:  BCF    0B.7
1048:  BSF    03.5
1049:  BSF    03.6
104A:  BSF    0C.7
104B:  BSF    0C.0
104C:  NOP
104D:  NOP
104E:  BCF    03.5
104F:  BCF    03.6
1050:  BTFSC  68.7
1051:  BSF    0B.7
1052:  BSF    03.6
1053:  RLF    0C,W
1054:  RLF    0E,W
1055:  ANDLW  7F
1056:  BTFSC  03.2
1057:  GOTO   074
1058:  BCF    03.6
1059:  MOVWF  65
105A:  BSF    03.6
105B:  MOVF   0D,W
105C:  BCF    03.6
105D:  MOVWF  66
105E:  BSF    03.6
105F:  MOVF   0F,W
1060:  BCF    03.6
1061:  MOVWF  67
1062:  MOVF   65,W
1063:  BSF    03.5
1064:  MOVWF  21
1065:  BCF    0A.4
1066:  BCF    03.5
1067:  CALL   18A
1068:  BSF    0A.4
1069:  MOVF   66,W
106A:  BSF    03.6
106B:  MOVWF  0D
106C:  BCF    03.6
106D:  MOVF   67,W
106E:  BSF    03.6
106F:  MOVWF  0F
1070:  INCF   0D,F
1071:  BTFSC  03.2
1072:  INCF   0F,F
1073:  GOTO   019
*
107C:  MOVF   0B,W
107D:  MOVWF  66
107E:  BCF    0B.7
107F:  BSF    03.5
1080:  BSF    03.6
1081:  BSF    0C.7
1082:  BSF    0C.0
1083:  NOP
1084:  NOP
1085:  BCF    03.5
1086:  BCF    03.6
1087:  BTFSC  66.7
1088:  BSF    0B.7
1089:  BTFSC  03.0
108A:  GOTO   0B7
108B:  BSF    03.6
108C:  MOVF   0C,W
108D:  ANDLW  7F
108E:  BCF    03.6
108F:  MOVWF  66
1090:  BSF    03.6
1091:  MOVF   0D,W
1092:  BCF    03.6
1093:  MOVWF  67
1094:  BSF    03.6
1095:  MOVF   0F,W
1096:  BCF    03.6
1097:  MOVWF  68
1098:  MOVF   66,W
1099:  BSF    03.5
109A:  MOVWF  21
109B:  BCF    0A.4
109C:  BCF    03.5
109D:  CALL   18A
109E:  BSF    0A.4
109F:  MOVF   67,W
10A0:  BSF    03.6
10A1:  MOVWF  0D
10A2:  BCF    03.6
10A3:  MOVF   68,W
10A4:  BSF    03.6
10A5:  MOVWF  0F
10A6:  BCF    03.6
10A7:  MOVF   0B,W
10A8:  MOVWF  69
10A9:  BCF    0B.7
10AA:  BSF    03.5
10AB:  BSF    03.6
10AC:  BSF    0C.7
10AD:  BSF    0C.0
10AE:  NOP
10AF:  NOP
10B0:  BCF    03.5
10B1:  BCF    03.6
10B2:  BTFSC  69.7
10B3:  BSF    0B.7
10B4:  DECFSZ 65,F
10B5:  GOTO   0B7
10B6:  GOTO   0DA
10B7:  BSF    03.6
10B8:  RLF    0C,W
10B9:  RLF    0E,W
10BA:  ANDLW  7F
10BB:  BCF    03.6
10BC:  MOVWF  66
10BD:  BSF    03.6
10BE:  MOVF   0D,W
10BF:  BCF    03.6
10C0:  MOVWF  67
10C1:  BSF    03.6
10C2:  MOVF   0F,W
10C3:  BCF    03.6
10C4:  MOVWF  68
10C5:  MOVF   66,W
10C6:  BSF    03.5
10C7:  MOVWF  21
10C8:  BCF    0A.4
10C9:  BCF    03.5
10CA:  CALL   18A
10CB:  BSF    0A.4
10CC:  MOVF   67,W
10CD:  BSF    03.6
10CE:  MOVWF  0D
10CF:  BCF    03.6
10D0:  MOVF   68,W
10D1:  BSF    03.6
10D2:  MOVWF  0F
10D3:  INCF   0D,F
10D4:  BTFSC  03.2
10D5:  INCF   0F,F
10D6:  BCF    03.0
10D7:  BCF    03.6
10D8:  DECFSZ 65,F
10D9:  GOTO   07C
*
111C:  BCF    03.6
111D:  MOVF   0B,W
111E:  MOVWF  65
111F:  BCF    0B.7
1120:  BSF    03.5
1121:  BSF    03.6
1122:  BSF    0C.7
1123:  BSF    0C.0
1124:  NOP
1125:  NOP
1126:  BCF    03.5
1127:  BCF    03.6
1128:  BTFSC  65.7
1129:  BSF    0B.7
112A:  BSF    03.6
112B:  MOVF   0C,W
112C:  ANDLW  7F
112D:  BTFSC  03.2
112E:  GOTO   177
112F:  BCF    03.6
1130:  MOVWF  65
1131:  BSF    03.6
1132:  MOVF   0D,W
1133:  BCF    03.6
1134:  MOVWF  66
1135:  BSF    03.6
1136:  MOVF   0F,W
1137:  BCF    03.6
1138:  MOVWF  67
1139:  MOVF   65,W
113A:  BSF    03.5
113B:  MOVWF  21
113C:  BCF    0A.4
113D:  BCF    03.5
113E:  CALL   18A
113F:  BSF    0A.4
1140:  MOVF   66,W
1141:  BSF    03.6
1142:  MOVWF  0D
1143:  BCF    03.6
1144:  MOVF   67,W
1145:  BSF    03.6
1146:  MOVWF  0F
1147:  BCF    03.6
1148:  MOVF   0B,W
1149:  MOVWF  68
114A:  BCF    0B.7
114B:  BSF    03.5
114C:  BSF    03.6
114D:  BSF    0C.7
114E:  BSF    0C.0
114F:  NOP
1150:  NOP
1151:  BCF    03.5
1152:  BCF    03.6
1153:  BTFSC  68.7
1154:  BSF    0B.7
1155:  BSF    03.6
1156:  RLF    0C,W
1157:  RLF    0E,W
1158:  ANDLW  7F
1159:  BTFSC  03.2
115A:  GOTO   177
115B:  BCF    03.6
115C:  MOVWF  65
115D:  BSF    03.6
115E:  MOVF   0D,W
115F:  BCF    03.6
1160:  MOVWF  66
1161:  BSF    03.6
1162:  MOVF   0F,W
1163:  BCF    03.6
1164:  MOVWF  67
1165:  MOVF   65,W
1166:  BSF    03.5
1167:  MOVWF  21
1168:  BCF    0A.4
1169:  BCF    03.5
116A:  CALL   18A
116B:  BSF    0A.4
116C:  MOVF   66,W
116D:  BSF    03.6
116E:  MOVWF  0D
116F:  BCF    03.6
1170:  MOVF   67,W
1171:  BSF    03.6
1172:  MOVWF  0F
1173:  INCF   0D,F
1174:  BTFSC  03.2
1175:  INCF   0F,F
1176:  GOTO   11C
*
117F:  MOVF   0B,W
1180:  MOVWF  66
1181:  BCF    0B.7
1182:  BSF    03.5
1183:  BSF    03.6
1184:  BSF    0C.7
1185:  BSF    0C.0
1186:  NOP
1187:  NOP
1188:  BCF    03.5
1189:  BCF    03.6
118A:  BTFSC  66.7
118B:  BSF    0B.7
118C:  BTFSC  03.0
118D:  GOTO   1BA
118E:  BSF    03.6
118F:  MOVF   0C,W
1190:  ANDLW  7F
1191:  BCF    03.6
1192:  MOVWF  66
1193:  BSF    03.6
1194:  MOVF   0D,W
1195:  BCF    03.6
1196:  MOVWF  67
1197:  BSF    03.6
1198:  MOVF   0F,W
1199:  BCF    03.6
119A:  MOVWF  68
119B:  MOVF   66,W
119C:  BSF    03.5
119D:  MOVWF  21
119E:  BCF    0A.4
119F:  BCF    03.5
11A0:  CALL   18A
11A1:  BSF    0A.4
11A2:  MOVF   67,W
11A3:  BSF    03.6
11A4:  MOVWF  0D
11A5:  BCF    03.6
11A6:  MOVF   68,W
11A7:  BSF    03.6
11A8:  MOVWF  0F
11A9:  BCF    03.6
11AA:  MOVF   0B,W
11AB:  MOVWF  69
11AC:  BCF    0B.7
11AD:  BSF    03.5
11AE:  BSF    03.6
11AF:  BSF    0C.7
11B0:  BSF    0C.0
11B1:  NOP
11B2:  NOP
11B3:  BCF    03.5
11B4:  BCF    03.6
11B5:  BTFSC  69.7
11B6:  BSF    0B.7
11B7:  DECFSZ 65,F
11B8:  GOTO   1BA
11B9:  GOTO   1DD
11BA:  BSF    03.6
11BB:  RLF    0C,W
11BC:  RLF    0E,W
11BD:  ANDLW  7F
11BE:  BCF    03.6
11BF:  MOVWF  66
11C0:  BSF    03.6
11C1:  MOVF   0D,W
11C2:  BCF    03.6
11C3:  MOVWF  67
11C4:  BSF    03.6
11C5:  MOVF   0F,W
11C6:  BCF    03.6
11C7:  MOVWF  68
11C8:  MOVF   66,W
11C9:  BSF    03.5
11CA:  MOVWF  21
11CB:  BCF    0A.4
11CC:  BCF    03.5
11CD:  CALL   18A
11CE:  BSF    0A.4
11CF:  MOVF   67,W
11D0:  BSF    03.6
11D1:  MOVWF  0D
11D2:  BCF    03.6
11D3:  MOVF   68,W
11D4:  BSF    03.6
11D5:  MOVWF  0F
11D6:  INCF   0D,F
11D7:  BTFSC  03.2
11D8:  INCF   0F,F
11D9:  BCF    03.0
11DA:  BCF    03.6
11DB:  DECFSZ 65,F
11DC:  GOTO   17F
*
121F:  BCF    03.6
1220:  MOVF   0B,W
1221:  MOVWF  65
1222:  BCF    0B.7
1223:  BSF    03.5
1224:  BSF    03.6
1225:  BSF    0C.7
1226:  BSF    0C.0
1227:  NOP
1228:  NOP
1229:  BCF    03.5
122A:  BCF    03.6
122B:  BTFSC  65.7
122C:  BSF    0B.7
122D:  BSF    03.6
122E:  MOVF   0C,W
122F:  ANDLW  7F
1230:  BTFSC  03.2
1231:  GOTO   27A
1232:  BCF    03.6
1233:  MOVWF  65
1234:  BSF    03.6
1235:  MOVF   0D,W
1236:  BCF    03.6
1237:  MOVWF  66
1238:  BSF    03.6
1239:  MOVF   0F,W
123A:  BCF    03.6
123B:  MOVWF  67
123C:  MOVF   65,W
123D:  BSF    03.5
123E:  MOVWF  21
123F:  BCF    0A.4
1240:  BCF    03.5
1241:  CALL   18A
1242:  BSF    0A.4
1243:  MOVF   66,W
1244:  BSF    03.6
1245:  MOVWF  0D
1246:  BCF    03.6
1247:  MOVF   67,W
1248:  BSF    03.6
1249:  MOVWF  0F
124A:  BCF    03.6
124B:  MOVF   0B,W
124C:  MOVWF  68
124D:  BCF    0B.7
124E:  BSF    03.5
124F:  BSF    03.6
1250:  BSF    0C.7
1251:  BSF    0C.0
1252:  NOP
1253:  NOP
1254:  BCF    03.5
1255:  BCF    03.6
1256:  BTFSC  68.7
1257:  BSF    0B.7
1258:  BSF    03.6
1259:  RLF    0C,W
125A:  RLF    0E,W
125B:  ANDLW  7F
125C:  BTFSC  03.2
125D:  GOTO   27A
125E:  BCF    03.6
125F:  MOVWF  65
1260:  BSF    03.6
1261:  MOVF   0D,W
1262:  BCF    03.6
1263:  MOVWF  66
1264:  BSF    03.6
1265:  MOVF   0F,W
1266:  BCF    03.6
1267:  MOVWF  67
1268:  MOVF   65,W
1269:  BSF    03.5
126A:  MOVWF  21
126B:  BCF    0A.4
126C:  BCF    03.5
126D:  CALL   18A
126E:  BSF    0A.4
126F:  MOVF   66,W
1270:  BSF    03.6
1271:  MOVWF  0D
1272:  BCF    03.6
1273:  MOVF   67,W
1274:  BSF    03.6
1275:  MOVWF  0F
1276:  INCF   0D,F
1277:  BTFSC  03.2
1278:  INCF   0F,F
1279:  GOTO   21F
*
1282:  MOVF   0B,W
1283:  MOVWF  66
1284:  BCF    0B.7
1285:  BSF    03.5
1286:  BSF    03.6
1287:  BSF    0C.7
1288:  BSF    0C.0
1289:  NOP
128A:  NOP
128B:  BCF    03.5
128C:  BCF    03.6
128D:  BTFSC  66.7
128E:  BSF    0B.7
128F:  BTFSC  03.0
1290:  GOTO   2BD
1291:  BSF    03.6
1292:  MOVF   0C,W
1293:  ANDLW  7F
1294:  BCF    03.6
1295:  MOVWF  66
1296:  BSF    03.6
1297:  MOVF   0D,W
1298:  BCF    03.6
1299:  MOVWF  67
129A:  BSF    03.6
129B:  MOVF   0F,W
129C:  BCF    03.6
129D:  MOVWF  68
129E:  MOVF   66,W
129F:  BSF    03.5
12A0:  MOVWF  21
12A1:  BCF    0A.4
12A2:  BCF    03.5
12A3:  CALL   18A
12A4:  BSF    0A.4
12A5:  MOVF   67,W
12A6:  BSF    03.6
12A7:  MOVWF  0D
12A8:  BCF    03.6
12A9:  MOVF   68,W
12AA:  BSF    03.6
12AB:  MOVWF  0F
12AC:  BCF    03.6
12AD:  MOVF   0B,W
12AE:  MOVWF  69
12AF:  BCF    0B.7
12B0:  BSF    03.5
12B1:  BSF    03.6
12B2:  BSF    0C.7
12B3:  BSF    0C.0
12B4:  NOP
12B5:  NOP
12B6:  BCF    03.5
12B7:  BCF    03.6
12B8:  BTFSC  69.7
12B9:  BSF    0B.7
12BA:  DECFSZ 65,F
12BB:  GOTO   2BD
12BC:  GOTO   2E0
12BD:  BSF    03.6
12BE:  RLF    0C,W
12BF:  RLF    0E,W
12C0:  ANDLW  7F
12C1:  BCF    03.6
12C2:  MOVWF  66
12C3:  BSF    03.6
12C4:  MOVF   0D,W
12C5:  BCF    03.6
12C6:  MOVWF  67
12C7:  BSF    03.6
12C8:  MOVF   0F,W
12C9:  BCF    03.6
12CA:  MOVWF  68
12CB:  MOVF   66,W
12CC:  BSF    03.5
12CD:  MOVWF  21
12CE:  BCF    0A.4
12CF:  BCF    03.5
12D0:  CALL   18A
12D1:  BSF    0A.4
12D2:  MOVF   67,W
12D3:  BSF    03.6
12D4:  MOVWF  0D
12D5:  BCF    03.6
12D6:  MOVF   68,W
12D7:  BSF    03.6
12D8:  MOVWF  0F
12D9:  INCF   0D,F
12DA:  BTFSC  03.2
12DB:  INCF   0F,F
12DC:  BCF    03.0
12DD:  BCF    03.6
12DE:  DECFSZ 65,F
12DF:  GOTO   282
*
1322:  BCF    03.6
1323:  MOVF   0B,W
1324:  MOVWF  65
1325:  BCF    0B.7
1326:  BSF    03.5
1327:  BSF    03.6
1328:  BSF    0C.7
1329:  BSF    0C.0
132A:  NOP
132B:  NOP
132C:  BCF    03.5
132D:  BCF    03.6
132E:  BTFSC  65.7
132F:  BSF    0B.7
1330:  BSF    03.6
1331:  MOVF   0C,W
1332:  ANDLW  7F
1333:  BTFSC  03.2
1334:  GOTO   37D
1335:  BCF    03.6
1336:  MOVWF  65
1337:  BSF    03.6
1338:  MOVF   0D,W
1339:  BCF    03.6
133A:  MOVWF  66
133B:  BSF    03.6
133C:  MOVF   0F,W
133D:  BCF    03.6
133E:  MOVWF  67
133F:  MOVF   65,W
1340:  BSF    03.5
1341:  MOVWF  21
1342:  BCF    0A.4
1343:  BCF    03.5
1344:  CALL   18A
1345:  BSF    0A.4
1346:  MOVF   66,W
1347:  BSF    03.6
1348:  MOVWF  0D
1349:  BCF    03.6
134A:  MOVF   67,W
134B:  BSF    03.6
134C:  MOVWF  0F
134D:  BCF    03.6
134E:  MOVF   0B,W
134F:  MOVWF  68
1350:  BCF    0B.7
1351:  BSF    03.5
1352:  BSF    03.6
1353:  BSF    0C.7
1354:  BSF    0C.0
1355:  NOP
1356:  NOP
1357:  BCF    03.5
1358:  BCF    03.6
1359:  BTFSC  68.7
135A:  BSF    0B.7
135B:  BSF    03.6
135C:  RLF    0C,W
135D:  RLF    0E,W
135E:  ANDLW  7F
135F:  BTFSC  03.2
1360:  GOTO   37D
1361:  BCF    03.6
1362:  MOVWF  65
1363:  BSF    03.6
1364:  MOVF   0D,W
1365:  BCF    03.6
1366:  MOVWF  66
1367:  BSF    03.6
1368:  MOVF   0F,W
1369:  BCF    03.6
136A:  MOVWF  67
136B:  MOVF   65,W
136C:  BSF    03.5
136D:  MOVWF  21
136E:  BCF    0A.4
136F:  BCF    03.5
1370:  CALL   18A
1371:  BSF    0A.4
1372:  MOVF   66,W
1373:  BSF    03.6
1374:  MOVWF  0D
1375:  BCF    03.6
1376:  MOVF   67,W
1377:  BSF    03.6
1378:  MOVWF  0F
1379:  INCF   0D,F
137A:  BTFSC  03.2
137B:  INCF   0F,F
137C:  GOTO   322
*
1385:  MOVF   0B,W
1386:  MOVWF  66
1387:  BCF    0B.7
1388:  BSF    03.5
1389:  BSF    03.6
138A:  BSF    0C.7
138B:  BSF    0C.0
138C:  NOP
138D:  NOP
138E:  BCF    03.5
138F:  BCF    03.6
1390:  BTFSC  66.7
1391:  BSF    0B.7
1392:  BTFSC  03.0
1393:  GOTO   3C0
1394:  BSF    03.6
1395:  MOVF   0C,W
1396:  ANDLW  7F
1397:  BCF    03.6
1398:  MOVWF  66
1399:  BSF    03.6
139A:  MOVF   0D,W
139B:  BCF    03.6
139C:  MOVWF  67
139D:  BSF    03.6
139E:  MOVF   0F,W
139F:  BCF    03.6
13A0:  MOVWF  68
13A1:  MOVF   66,W
13A2:  BSF    03.5
13A3:  MOVWF  21
13A4:  BCF    0A.4
13A5:  BCF    03.5
13A6:  CALL   18A
13A7:  BSF    0A.4
13A8:  MOVF   67,W
13A9:  BSF    03.6
13AA:  MOVWF  0D
13AB:  BCF    03.6
13AC:  MOVF   68,W
13AD:  BSF    03.6
13AE:  MOVWF  0F
13AF:  BCF    03.6
13B0:  MOVF   0B,W
13B1:  MOVWF  69
13B2:  BCF    0B.7
13B3:  BSF    03.5
13B4:  BSF    03.6
13B5:  BSF    0C.7
13B6:  BSF    0C.0
13B7:  NOP
13B8:  NOP
13B9:  BCF    03.5
13BA:  BCF    03.6
13BB:  BTFSC  69.7
13BC:  BSF    0B.7
13BD:  DECFSZ 65,F
13BE:  GOTO   3C0
13BF:  GOTO   3E3
13C0:  BSF    03.6
13C1:  RLF    0C,W
13C2:  RLF    0E,W
13C3:  ANDLW  7F
13C4:  BCF    03.6
13C5:  MOVWF  66
13C6:  BSF    03.6
13C7:  MOVF   0D,W
13C8:  BCF    03.6
13C9:  MOVWF  67
13CA:  BSF    03.6
13CB:  MOVF   0F,W
13CC:  BCF    03.6
13CD:  MOVWF  68
13CE:  MOVF   66,W
13CF:  BSF    03.5
13D0:  MOVWF  21
13D1:  BCF    0A.4
13D2:  BCF    03.5
13D3:  CALL   18A
13D4:  BSF    0A.4
13D5:  MOVF   67,W
13D6:  BSF    03.6
13D7:  MOVWF  0D
13D8:  BCF    03.6
13D9:  MOVF   68,W
13DA:  BSF    03.6
13DB:  MOVWF  0F
13DC:  INCF   0D,F
13DD:  BTFSC  03.2
13DE:  INCF   0F,F
13DF:  BCF    03.0
13E0:  BCF    03.6
13E1:  DECFSZ 65,F
13E2:  GOTO   385
*
147F:  MOVF   0B,W
1480:  MOVWF  66
1481:  BCF    0B.7
1482:  BSF    03.5
1483:  BSF    03.6
1484:  BSF    0C.7
1485:  BSF    0C.0
1486:  NOP
1487:  NOP
1488:  BCF    03.5
1489:  BCF    03.6
148A:  BTFSC  66.7
148B:  BSF    0B.7
148C:  BTFSC  03.0
148D:  GOTO   4BA
148E:  BSF    03.6
148F:  MOVF   0C,W
1490:  ANDLW  7F
1491:  BCF    03.6
1492:  MOVWF  66
1493:  BSF    03.6
1494:  MOVF   0D,W
1495:  BCF    03.6
1496:  MOVWF  67
1497:  BSF    03.6
1498:  MOVF   0F,W
1499:  BCF    03.6
149A:  MOVWF  68
149B:  MOVF   66,W
149C:  BSF    03.5
149D:  MOVWF  21
149E:  BCF    0A.4
149F:  BCF    03.5
14A0:  CALL   18A
14A1:  BSF    0A.4
14A2:  MOVF   67,W
14A3:  BSF    03.6
14A4:  MOVWF  0D
14A5:  BCF    03.6
14A6:  MOVF   68,W
14A7:  BSF    03.6
14A8:  MOVWF  0F
14A9:  BCF    03.6
14AA:  MOVF   0B,W
14AB:  MOVWF  69
14AC:  BCF    0B.7
14AD:  BSF    03.5
14AE:  BSF    03.6
14AF:  BSF    0C.7
14B0:  BSF    0C.0
14B1:  NOP
14B2:  NOP
14B3:  BCF    03.5
14B4:  BCF    03.6
14B5:  BTFSC  69.7
14B6:  BSF    0B.7
14B7:  DECFSZ 65,F
14B8:  GOTO   4BA
14B9:  GOTO   4DD
14BA:  BSF    03.6
14BB:  RLF    0C,W
14BC:  RLF    0E,W
14BD:  ANDLW  7F
14BE:  BCF    03.6
14BF:  MOVWF  66
14C0:  BSF    03.6
14C1:  MOVF   0D,W
14C2:  BCF    03.6
14C3:  MOVWF  67
14C4:  BSF    03.6
14C5:  MOVF   0F,W
14C6:  BCF    03.6
14C7:  MOVWF  68
14C8:  MOVF   66,W
14C9:  BSF    03.5
14CA:  MOVWF  21
14CB:  BCF    0A.4
14CC:  BCF    03.5
14CD:  CALL   18A
14CE:  BSF    0A.4
14CF:  MOVF   67,W
14D0:  BSF    03.6
14D1:  MOVWF  0D
14D2:  BCF    03.6
14D3:  MOVF   68,W
14D4:  BSF    03.6
14D5:  MOVWF  0F
14D6:  INCF   0D,F
14D7:  BTFSC  03.2
14D8:  INCF   0F,F
14D9:  BCF    03.0
14DA:  BCF    03.6
14DB:  DECFSZ 65,F
14DC:  GOTO   47F
*
150F:  BSF    0A.0
1510:  BCF    0A.1
1511:  BSF    0A.2
1512:  ADDWF  02,F
1513:  GOTO   007
1514:  GOTO   10A
1515:  GOTO   20D
1516:  GOTO   310
1517:  GOTO   413
....................  
.................... #list 
....................  
....................  
.................... #FUSES NOWDT                      //Watch Dog Timer 
.................... #FUSES XT                       //Crystal osc <= 4mhz 
.................... #FUSES NOPUT                    //No Power Up Timer 
.................... #FUSES NOPROTECT                //Code not protected from reading 
.................... #FUSES NODEBUG                  //No Debug mode for ICD 
.................... #FUSES NOBROWNOUT               //No brownout reset 
.................... #FUSES NOLVP                    //No low voltage prgming, B3(PIC16) or B5(PIC18) used for I/O 
.................... #FUSES NOCPD                    //No EE protection 
.................... #FUSES NOWRT                    //Program memory not write protected 
....................  
.................... #define BASE_TEMPO  (65536-625) 
....................  
....................  
....................  
.................... #define clear lcd_putc('\f'); 
.................... #define delay_adc delay_us(1000);  
.................... // lcd pins 
.................... #define LCD_ENABLE_PIN  PIN_E0                                     
.................... #define LCD_RS_PIN      PIN_E1                                     
.................... #define LCD_RW_PIN      PIN_E2                                     
.................... #define LCD_DATA4       PIN_D4                                     
.................... #define LCD_DATA5       PIN_D5                                    
.................... #define LCD_DATA6       PIN_D6                                    
.................... #define LCD_DATA7       PIN_D7 
....................  
.................... // fator divisor de tensao 
.................... #define relac 3 
....................  
.................... // voltage pins 
.................... #device ADC=8 
.................... #define V1 AN0 
.................... #define V2 AN1 
.................... #define V3 AN2 
.................... #define V4 AN3 
....................  
.................... // relays 
.................... #define S1 PIN_D0 
.................... #define S2 PIN_D1 
.................... #define S3 PIN_D2 
....................  
.................... // output leds 
.................... #define LB1 PIN_C0 
.................... #define LB2 PIN_C1 
.................... #define LB3 PIN_C2 
.................... #define LB4 PIN_C3 
.................... #DEFINE CHARGE_LED PIN_C4 
....................  
....................  
.................... // menu pins  
.................... #define up PIN_B1 
.................... #define CHARGE_MODE PIN_B2 
....................  
....................  
.................... #use delay(clock=4000000) 
*
0175:  MOVLW  A2
0176:  MOVWF  04
0177:  BCF    03.7
0178:  MOVF   00,W
0179:  BTFSC  03.2
017A:  GOTO   189
017B:  MOVLW  01
017C:  MOVWF  78
017D:  CLRF   77
017E:  DECFSZ 77,F
017F:  GOTO   17E
0180:  DECFSZ 78,F
0181:  GOTO   17D
0182:  MOVLW  4A
0183:  MOVWF  77
0184:  DECFSZ 77,F
0185:  GOTO   184
0186:  GOTO   187
0187:  DECFSZ 00,F
0188:  GOTO   17B
0189:  RETURN
.................... #include <lcd.c> 
.................... /////////////////////////////////////////////////////////////////////////////// 
.................... ////                             LCD.C                                     //// 
.................... ////                 Driver for common LCD modules                         //// 
.................... ////                                                                       //// 
.................... ////  lcd_init()   Must be called before any other function.               //// 
.................... ////                                                                       //// 
.................... ////  lcd_putc(c)  Will display c on the next position of the LCD.         //// 
.................... ////                 \a  Set cursor position to upper left                 //// 
.................... ////                 \f  Clear display, set cursor to upper left           //// 
.................... ////                 \n  Go to start of second line                        //// 
.................... ////                 \b  Move back one position                            //// 
.................... ////              If LCD_EXTENDED_NEWLINE is defined, the \n character     //// 
.................... ////              will erase all remanining characters on the current      //// 
.................... ////              line, and move the cursor to the beginning of the next   //// 
.................... ////              line.                                                    //// 
.................... ////              If LCD_EXTENDED_NEWLINE is defined, the \r character     //// 
.................... ////              will move the cursor to the start of the current         //// 
.................... ////              line.                                                    //// 
.................... ////                                                                       //// 
.................... ////  lcd_gotoxy(x,y) Set write position on LCD (upper left is 1,1)        //// 
.................... ////                                                                       //// 
.................... ////  lcd_getc(x,y)   Returns character at position x,y on LCD             //// 
.................... ////                                                                       //// 
.................... ////  lcd_cursor_on(int1 on)   Turn the cursor on (on=TRUE) or off         //// 
.................... ////              (on=FALSE).                                              //// 
.................... ////                                                                       //// 
.................... ////  lcd_set_cgram_char(w, *p)   Write a custom character to the CGRAM.   //// 
.................... ////                                                                       //// 
.................... ////                                                                       //// 
.................... ////  CONFIGURATION                                                        //// 
.................... ////  The LCD can be configured in one of two ways: a.) port access or     //// 
.................... ////  b.) pin access.  Port access requires the entire 7 bit interface     //// 
.................... ////  connected to one GPIO port, and the data bits (D4:D7 of the LCD)     //// 
.................... ////  connected to sequential pins on the GPIO.  Pin access                //// 
.................... ////  has no requirements, all 7 bits of the control interface can         //// 
.................... ////  can be connected to any GPIO using several ports.                    //// 
.................... ////                                                                       //// 
.................... ////  To use port access, #define LCD_DATA_PORT to the SFR location of     //// 
.................... ////  of the GPIO port that holds the interface, -AND- edit LCD_PIN_MAP    //// 
.................... ////  of this file to configure the pin order.  If you are using a         //// 
.................... ////  baseline PIC (PCB), then LCD_OUTPUT_MAP and LCD_INPUT_MAP also must  //// 
.................... ////  be defined.                                                          //// 
.................... ////                                                                       //// 
.................... ////  Example of port access:                                              //// 
.................... ////     #define LCD_DATA_PORT getenv("SFR:PORTD")                         //// 
.................... ////                                                                       //// 
.................... ////  To use pin access, the following pins must be defined:               //// 
.................... ////     LCD_ENABLE_PIN                                                    //// 
.................... ////     LCD_RS_PIN                                                        //// 
.................... ////     LCD_RW_PIN                                                        //// 
.................... ////     LCD_DATA4                                                         //// 
.................... ////     LCD_DATA5                                                         //// 
.................... ////     LCD_DATA6                                                         //// 
.................... ////     LCD_DATA7                                                         //// 
.................... ////                                                                       //// 
.................... ////  Example of pin access:                                               //// 
.................... ////     #define LCD_ENABLE_PIN  PIN_E0                                    //// 
.................... ////     #define LCD_RS_PIN      PIN_E1                                    //// 
.................... ////     #define LCD_RW_PIN      PIN_E2                                    //// 
.................... ////     #define LCD_DATA4       PIN_D4                                    //// 
.................... ////     #define LCD_DATA5       PIN_D5                                    //// 
.................... ////     #define LCD_DATA6       PIN_D6                                    //// 
.................... ////     #define LCD_DATA7       PIN_D7                                    //// 
.................... ////                                                                       //// 
.................... /////////////////////////////////////////////////////////////////////////////// 
.................... ////        (C) Copyright 1996,2010 Custom Computer Services           //// 
.................... //// This source code may only be used by licensed users of the CCS C  //// 
.................... //// compiler.  This source code may only be distributed to other      //// 
.................... //// licensed users of the CCS C compiler.  No other use, reproduction //// 
.................... //// or distribution is permitted without written permission.          //// 
.................... //// Derivative programs created using this software in object code    //// 
.................... //// form are not restricted in any way.                               //// 
.................... /////////////////////////////////////////////////////////////////////////// 
....................  
.................... #ifndef __LCD_C__ 
.................... #define __LCD_C__ 
....................  
.................... // define the pinout. 
.................... // only required if port access is being used. 
.................... typedef struct   
.................... {                            // This structure is overlayed 
....................    int1 enable;           // on to an I/O port to gain 
....................    int1 rs;               // access to the LCD pins. 
....................    int1 rw;               // The bits are allocated from 
....................    int1 unused;           // low order up.  ENABLE will 
....................    unsigned int     data : 4;         // be LSB pin of that port. 
....................   #if defined(__PCD__)       // The port used will be LCD_DATA_PORT. 
....................    unsigned int    reserved: 8; 
....................   #endif 
.................... } LCD_PIN_MAP; 
....................  
.................... // this is to improve compatability with previous LCD drivers that accepted 
.................... // a define labeled 'use_portb_lcd' that configured the LCD onto port B. 
.................... #if ((defined(use_portb_lcd)) && (use_portb_lcd==TRUE)) 
....................  #define LCD_DATA_PORT getenv("SFR:PORTB") 
.................... #endif 
....................  
.................... #if defined(__PCB__) 
....................    // these definitions only need to be modified for baseline PICs. 
....................    // all other PICs use LCD_PIN_MAP or individual LCD_xxx pin definitions. 
.................... /*                                    EN, RS,   RW,   UNUSED,  DATA  */ 
....................  const LCD_PIN_MAP LCD_OUTPUT_MAP =  {0,  0,    0,    0,       0}; 
....................  const LCD_PIN_MAP LCD_INPUT_MAP =   {0,  0,    0,    0,       0xF}; 
.................... #endif 
....................  
.................... ////////////////////// END CONFIGURATION /////////////////////////////////// 
....................  
.................... #ifndef LCD_ENABLE_PIN 
....................    #define lcd_output_enable(x) lcdlat.enable=x 
....................    #define lcd_enable_tris()   lcdtris.enable=0 
.................... #else 
....................    #define lcd_output_enable(x) output_bit(LCD_ENABLE_PIN, x) 
....................    #define lcd_enable_tris()  output_drive(LCD_ENABLE_PIN) 
.................... #endif 
....................  
.................... #ifndef LCD_RS_PIN 
....................    #define lcd_output_rs(x) lcdlat.rs=x 
....................    #define lcd_rs_tris()   lcdtris.rs=0 
.................... #else 
....................    #define lcd_output_rs(x) output_bit(LCD_RS_PIN, x) 
....................    #define lcd_rs_tris()  output_drive(LCD_RS_PIN) 
.................... #endif 
....................  
.................... #ifndef LCD_RW_PIN 
....................    #define lcd_output_rw(x) lcdlat.rw=x 
....................    #define lcd_rw_tris()   lcdtris.rw=0 
.................... #else 
....................    #define lcd_output_rw(x) output_bit(LCD_RW_PIN, x) 
....................    #define lcd_rw_tris()  output_drive(LCD_RW_PIN) 
.................... #endif 
....................  
.................... // original version of this library incorrectly labeled LCD_DATA0 as LCD_DATA4, 
.................... // LCD_DATA1 as LCD_DATA5, and so on.  this block of code makes the driver 
.................... // compatible with any code written for the original library 
.................... #if (defined(LCD_DATA0) && defined(LCD_DATA1) && defined(LCD_DATA2) && defined(LCD_DATA3) && !defined(LCD_DATA4) && !defined(LCD_DATA5) && !defined(LCD_DATA6) && !defined(LCD_DATA7)) 
....................    #define  LCD_DATA4    LCD_DATA0 
....................    #define  LCD_DATA5    LCD_DATA1 
....................    #define  LCD_DATA6    LCD_DATA2 
....................    #define  LCD_DATA7    LCD_DATA3 
.................... #endif 
....................  
.................... #ifndef LCD_DATA4 
.................... #ifndef LCD_DATA_PORT 
....................    #if defined(__PCB__) 
....................       #define LCD_DATA_PORT      0x06     //portb 
....................       #define set_tris_lcd(x)   set_tris_b(x) 
....................    #else 
....................      #if defined(PIN_D0) 
....................       #define LCD_DATA_PORT      getenv("SFR:PORTD")     //portd 
....................      #else 
....................       #define LCD_DATA_PORT      getenv("SFR:PORTB")     //portb 
....................      #endif 
....................    #endif    
.................... #endif 
....................  
.................... #if defined(__PCB__) 
....................    LCD_PIN_MAP lcd, lcdlat; 
....................    #byte lcd = LCD_DATA_PORT 
....................    #byte lcdlat = LCD_DATA_PORT 
.................... #elif defined(__PCM__) 
....................    LCD_PIN_MAP lcd, lcdlat, lcdtris; 
....................    #byte lcd = LCD_DATA_PORT 
....................    #byte lcdlat = LCD_DATA_PORT 
....................    #byte lcdtris = LCD_DATA_PORT+0x80 
.................... #elif defined(__PCH__) 
....................    LCD_PIN_MAP lcd, lcdlat, lcdtris; 
....................    #byte lcd = LCD_DATA_PORT 
....................    #byte lcdlat = LCD_DATA_PORT+9 
....................    #byte lcdtris = LCD_DATA_PORT+0x12 
.................... #elif defined(__PCD__) 
....................    LCD_PIN_MAP lcd, lcdlat, lcdtris; 
....................    #word lcd = LCD_DATA_PORT 
....................    #word lcdlat = LCD_DATA_PORT+2 
....................    #word lcdtris = LCD_DATA_PORT-0x02 
.................... #endif 
.................... #endif   //LCD_DATA4 not defined 
....................  
.................... #ifndef LCD_TYPE 
....................    #define LCD_TYPE 2           // 0=5x7, 1=5x10, 2=2 lines 
.................... #endif 
....................  
.................... #ifndef LCD_LINE_TWO 
....................    #define LCD_LINE_TWO 0x40    // LCD RAM address for the second line 
.................... #endif 
....................  
.................... #ifndef LCD_LINE_LENGTH 
....................    #define LCD_LINE_LENGTH 20 
.................... #endif 
....................  
.................... unsigned int8 lcd_read_nibble(void); 
....................  
.................... unsigned int8 lcd_read_byte(void) 
.................... { 
....................    unsigned int8 low,high; 
....................  
....................  #if defined(__PCB__) 
....................    set_tris_lcd(LCD_INPUT_MAP); 
....................  #else 
....................   #if (defined(LCD_DATA4) && defined(LCD_DATA5) && defined(LCD_DATA6) && defined(LCD_DATA7)) 
....................    output_float(LCD_DATA4); 
*
0060:  BSF    08.4
....................    output_float(LCD_DATA5); 
0061:  BSF    08.5
....................    output_float(LCD_DATA6); 
0062:  BSF    08.6
....................    output_float(LCD_DATA7); 
0063:  BSF    08.7
....................   #else 
....................    lcdtris.data = 0xF; 
....................   #endif 
....................  #endif 
....................          
....................    lcd_output_rw(1); 
0064:  BCF    03.5
0065:  BSF    09.2
0066:  BSF    03.5
0067:  BCF    09.2
....................    delay_cycles(1); 
0068:  NOP
....................    lcd_output_enable(1); 
0069:  BCF    03.5
006A:  BSF    09.0
006B:  BSF    03.5
006C:  BCF    09.0
....................    delay_cycles(1); 
006D:  NOP
....................    high = lcd_read_nibble(); 
*
009E:  MOVF   78,W
009F:  MOVWF  29
....................        
....................    lcd_output_enable(0); 
00A0:  BCF    03.5
00A1:  BCF    09.0
00A2:  BSF    03.5
00A3:  BCF    09.0
....................    delay_cycles(1); 
00A4:  NOP
....................    lcd_output_enable(1); 
00A5:  BCF    03.5
00A6:  BSF    09.0
00A7:  BSF    03.5
00A8:  BCF    09.0
....................    delay_us(1); 
00A9:  NOP
....................    low = lcd_read_nibble(); 
*
00DA:  MOVF   78,W
00DB:  MOVWF  28
....................        
....................    lcd_output_enable(0); 
00DC:  BCF    03.5
00DD:  BCF    09.0
00DE:  BSF    03.5
00DF:  BCF    09.0
....................  
....................  #if defined(__PCB__) 
....................    set_tris_lcd(LCD_OUTPUT_MAP); 
....................  #else 
....................   #if (defined(LCD_DATA4) && defined(LCD_DATA5) && defined(LCD_DATA6) && defined(LCD_DATA7)) 
....................    output_drive(LCD_DATA4); 
00E0:  BCF    08.4
....................    output_drive(LCD_DATA5); 
00E1:  BCF    08.5
....................    output_drive(LCD_DATA6); 
00E2:  BCF    08.6
....................    output_drive(LCD_DATA7); 
00E3:  BCF    08.7
....................   #else 
....................    lcdtris.data = 0x0; 
....................   #endif 
....................  #endif 
....................  
....................    return( (high<<4) | low); 
00E4:  SWAPF  29,W
00E5:  MOVWF  77
00E6:  MOVLW  F0
00E7:  ANDWF  77,F
00E8:  MOVF   77,W
00E9:  IORWF  28,W
00EA:  MOVWF  78
.................... } 
....................  
.................... unsigned int8 lcd_read_nibble(void) 
.................... { 
....................   #if (defined(LCD_DATA4) && defined(LCD_DATA5) && defined(LCD_DATA6) && defined(LCD_DATA7)) 
*
006E:  CLRF   2A
*
00AA:  CLRF   2A
....................    unsigned int8 n = 0x00; 
....................  
....................    /* Read the data port */ 
....................    n |= input(LCD_DATA4); 
*
006F:  BSF    08.4
0070:  MOVLW  00
0071:  BCF    03.5
0072:  BTFSC  08.4
0073:  MOVLW  01
0074:  BSF    03.5
0075:  IORWF  2A,F
*
00AB:  BSF    08.4
00AC:  MOVLW  00
00AD:  BCF    03.5
00AE:  BTFSC  08.4
00AF:  MOVLW  01
00B0:  BSF    03.5
00B1:  IORWF  2A,F
....................    n |= input(LCD_DATA5) << 1; 
*
0076:  BSF    08.5
0077:  MOVLW  00
0078:  BCF    03.5
0079:  BTFSC  08.5
007A:  MOVLW  01
007B:  MOVWF  77
007C:  BCF    03.0
007D:  RLF    77,F
007E:  MOVF   77,W
007F:  BSF    03.5
0080:  IORWF  2A,F
*
00B2:  BSF    08.5
00B3:  MOVLW  00
00B4:  BCF    03.5
00B5:  BTFSC  08.5
00B6:  MOVLW  01
00B7:  MOVWF  77
00B8:  BCF    03.0
00B9:  RLF    77,F
00BA:  MOVF   77,W
00BB:  BSF    03.5
00BC:  IORWF  2A,F
....................    n |= input(LCD_DATA6) << 2; 
*
0081:  BSF    08.6
0082:  MOVLW  00
0083:  BCF    03.5
0084:  BTFSC  08.6
0085:  MOVLW  01
0086:  MOVWF  77
0087:  RLF    77,F
0088:  RLF    77,F
0089:  MOVLW  FC
008A:  ANDWF  77,F
008B:  MOVF   77,W
008C:  BSF    03.5
008D:  IORWF  2A,F
*
00BD:  BSF    08.6
00BE:  MOVLW  00
00BF:  BCF    03.5
00C0:  BTFSC  08.6
00C1:  MOVLW  01
00C2:  MOVWF  77
00C3:  RLF    77,F
00C4:  RLF    77,F
00C5:  MOVLW  FC
00C6:  ANDWF  77,F
00C7:  MOVF   77,W
00C8:  BSF    03.5
00C9:  IORWF  2A,F
....................    n |= input(LCD_DATA7) << 3; 
*
008E:  BSF    08.7
008F:  MOVLW  00
0090:  BCF    03.5
0091:  BTFSC  08.7
0092:  MOVLW  01
0093:  MOVWF  77
0094:  RLF    77,F
0095:  RLF    77,F
0096:  RLF    77,F
0097:  MOVLW  F8
0098:  ANDWF  77,F
0099:  MOVF   77,W
009A:  BSF    03.5
009B:  IORWF  2A,F
*
00CA:  BSF    08.7
00CB:  MOVLW  00
00CC:  BCF    03.5
00CD:  BTFSC  08.7
00CE:  MOVLW  01
00CF:  MOVWF  77
00D0:  RLF    77,F
00D1:  RLF    77,F
00D2:  RLF    77,F
00D3:  MOVLW  F8
00D4:  ANDWF  77,F
00D5:  MOVF   77,W
00D6:  BSF    03.5
00D7:  IORWF  2A,F
....................     
....................    return(n); 
*
009C:  MOVF   2A,W
009D:  MOVWF  78
*
00D8:  MOVF   2A,W
00D9:  MOVWF  78
....................   #else 
....................    return(lcd.data); 
....................   #endif 
.................... } 
....................  
.................... void lcd_send_nibble(unsigned int8 n) 
.................... { 
....................   #if (defined(LCD_DATA4) && defined(LCD_DATA5) && defined(LCD_DATA6) && defined(LCD_DATA7)) 
....................    /* Write to the data port */ 
....................    output_bit(LCD_DATA4, bit_test(n, 0)); 
*
010A:  BTFSC  29.0
010B:  GOTO   110
010C:  BCF    03.5
010D:  BCF    08.4
010E:  GOTO   112
010F:  BSF    03.5
0110:  BCF    03.5
0111:  BSF    08.4
0112:  BSF    03.5
0113:  BCF    08.4
*
0141:  BTFSC  29.0
0142:  GOTO   147
0143:  BCF    03.5
0144:  BCF    08.4
0145:  GOTO   149
0146:  BSF    03.5
0147:  BCF    03.5
0148:  BSF    08.4
0149:  BSF    03.5
014A:  BCF    08.4
*
0B88:  BTFSC  29.0
0B89:  GOTO   38E
0B8A:  BCF    03.5
0B8B:  BCF    08.4
0B8C:  GOTO   390
0B8D:  BSF    03.5
0B8E:  BCF    03.5
0B8F:  BSF    08.4
0B90:  BSF    03.5
0B91:  BCF    08.4
*
0BCD:  BTFSC  29.0
0BCE:  GOTO   3D3
0BCF:  BCF    03.5
0BD0:  BCF    08.4
0BD1:  GOTO   3D5
0BD2:  BSF    03.5
0BD3:  BCF    03.5
0BD4:  BSF    08.4
0BD5:  BSF    03.5
0BD6:  BCF    08.4
*
0C60:  BTFSC  29.0
0C61:  GOTO   466
0C62:  BCF    03.5
0C63:  BCF    08.4
0C64:  GOTO   468
0C65:  BSF    03.5
0C66:  BCF    03.5
0C67:  BSF    08.4
0C68:  BSF    03.5
0C69:  BCF    08.4
*
0CA5:  BTFSC  29.0
0CA6:  GOTO   4AB
0CA7:  BCF    03.5
0CA8:  BCF    08.4
0CA9:  GOTO   4AD
0CAA:  BSF    03.5
0CAB:  BCF    03.5
0CAC:  BSF    08.4
0CAD:  BSF    03.5
0CAE:  BCF    08.4
....................    output_bit(LCD_DATA5, bit_test(n, 1)); 
*
0114:  BTFSC  29.1
0115:  GOTO   11A
0116:  BCF    03.5
0117:  BCF    08.5
0118:  GOTO   11C
0119:  BSF    03.5
011A:  BCF    03.5
011B:  BSF    08.5
011C:  BSF    03.5
011D:  BCF    08.5
*
014B:  BTFSC  29.1
014C:  GOTO   151
014D:  BCF    03.5
014E:  BCF    08.5
014F:  GOTO   153
0150:  BSF    03.5
0151:  BCF    03.5
0152:  BSF    08.5
0153:  BSF    03.5
0154:  BCF    08.5
*
0B92:  BTFSC  29.1
0B93:  GOTO   398
0B94:  BCF    03.5
0B95:  BCF    08.5
0B96:  GOTO   39A
0B97:  BSF    03.5
0B98:  BCF    03.5
0B99:  BSF    08.5
0B9A:  BSF    03.5
0B9B:  BCF    08.5
*
0BD7:  BTFSC  29.1
0BD8:  GOTO   3DD
0BD9:  BCF    03.5
0BDA:  BCF    08.5
0BDB:  GOTO   3DF
0BDC:  BSF    03.5
0BDD:  BCF    03.5
0BDE:  BSF    08.5
0BDF:  BSF    03.5
0BE0:  BCF    08.5
*
0C6A:  BTFSC  29.1
0C6B:  GOTO   470
0C6C:  BCF    03.5
0C6D:  BCF    08.5
0C6E:  GOTO   472
0C6F:  BSF    03.5
0C70:  BCF    03.5
0C71:  BSF    08.5
0C72:  BSF    03.5
0C73:  BCF    08.5
*
0CAF:  BTFSC  29.1
0CB0:  GOTO   4B5
0CB1:  BCF    03.5
0CB2:  BCF    08.5
0CB3:  GOTO   4B7
0CB4:  BSF    03.5
0CB5:  BCF    03.5
0CB6:  BSF    08.5
0CB7:  BSF    03.5
0CB8:  BCF    08.5
....................    output_bit(LCD_DATA6, bit_test(n, 2)); 
*
011E:  BTFSC  29.2
011F:  GOTO   124
0120:  BCF    03.5
0121:  BCF    08.6
0122:  GOTO   126
0123:  BSF    03.5
0124:  BCF    03.5
0125:  BSF    08.6
0126:  BSF    03.5
0127:  BCF    08.6
*
0155:  BTFSC  29.2
0156:  GOTO   15B
0157:  BCF    03.5
0158:  BCF    08.6
0159:  GOTO   15D
015A:  BSF    03.5
015B:  BCF    03.5
015C:  BSF    08.6
015D:  BSF    03.5
015E:  BCF    08.6
*
0B9C:  BTFSC  29.2
0B9D:  GOTO   3A2
0B9E:  BCF    03.5
0B9F:  BCF    08.6
0BA0:  GOTO   3A4
0BA1:  BSF    03.5
0BA2:  BCF    03.5
0BA3:  BSF    08.6
0BA4:  BSF    03.5
0BA5:  BCF    08.6
*
0BE1:  BTFSC  29.2
0BE2:  GOTO   3E7
0BE3:  BCF    03.5
0BE4:  BCF    08.6
0BE5:  GOTO   3E9
0BE6:  BSF    03.5
0BE7:  BCF    03.5
0BE8:  BSF    08.6
0BE9:  BSF    03.5
0BEA:  BCF    08.6
*
0C74:  BTFSC  29.2
0C75:  GOTO   47A
0C76:  BCF    03.5
0C77:  BCF    08.6
0C78:  GOTO   47C
0C79:  BSF    03.5
0C7A:  BCF    03.5
0C7B:  BSF    08.6
0C7C:  BSF    03.5
0C7D:  BCF    08.6
*
0CB9:  BTFSC  29.2
0CBA:  GOTO   4BF
0CBB:  BCF    03.5
0CBC:  BCF    08.6
0CBD:  GOTO   4C1
0CBE:  BSF    03.5
0CBF:  BCF    03.5
0CC0:  BSF    08.6
0CC1:  BSF    03.5
0CC2:  BCF    08.6
....................    output_bit(LCD_DATA7, bit_test(n, 3)); 
*
0128:  BTFSC  29.3
0129:  GOTO   12E
012A:  BCF    03.5
012B:  BCF    08.7
012C:  GOTO   130
012D:  BSF    03.5
012E:  BCF    03.5
012F:  BSF    08.7
0130:  BSF    03.5
0131:  BCF    08.7
*
015F:  BTFSC  29.3
0160:  GOTO   165
0161:  BCF    03.5
0162:  BCF    08.7
0163:  GOTO   167
0164:  BSF    03.5
0165:  BCF    03.5
0166:  BSF    08.7
0167:  BSF    03.5
0168:  BCF    08.7
*
0BA6:  BTFSC  29.3
0BA7:  GOTO   3AC
0BA8:  BCF    03.5
0BA9:  BCF    08.7
0BAA:  GOTO   3AE
0BAB:  BSF    03.5
0BAC:  BCF    03.5
0BAD:  BSF    08.7
0BAE:  BSF    03.5
0BAF:  BCF    08.7
*
0BEB:  BTFSC  29.3
0BEC:  GOTO   3F1
0BED:  BCF    03.5
0BEE:  BCF    08.7
0BEF:  GOTO   3F3
0BF0:  BSF    03.5
0BF1:  BCF    03.5
0BF2:  BSF    08.7
0BF3:  BSF    03.5
0BF4:  BCF    08.7
*
0C7E:  BTFSC  29.3
0C7F:  GOTO   484
0C80:  BCF    03.5
0C81:  BCF    08.7
0C82:  GOTO   486
0C83:  BSF    03.5
0C84:  BCF    03.5
0C85:  BSF    08.7
0C86:  BSF    03.5
0C87:  BCF    08.7
*
0CC3:  BTFSC  29.3
0CC4:  GOTO   4C9
0CC5:  BCF    03.5
0CC6:  BCF    08.7
0CC7:  GOTO   4CB
0CC8:  BSF    03.5
0CC9:  BCF    03.5
0CCA:  BSF    08.7
0CCB:  BSF    03.5
0CCC:  BCF    08.7
....................   #else       
....................    lcdlat.data = n; 
....................   #endif 
....................        
....................    delay_cycles(1); 
*
0132:  NOP
*
0169:  NOP
*
0BB0:  NOP
*
0BF5:  NOP
*
0C88:  NOP
*
0CCD:  NOP
....................    lcd_output_enable(1); 
*
0133:  BCF    03.5
0134:  BSF    09.0
0135:  BSF    03.5
0136:  BCF    09.0
*
016A:  BCF    03.5
016B:  BSF    09.0
016C:  BSF    03.5
016D:  BCF    09.0
*
0BB1:  BCF    03.5
0BB2:  BSF    09.0
0BB3:  BSF    03.5
0BB4:  BCF    09.0
*
0BF6:  BCF    03.5
0BF7:  BSF    09.0
0BF8:  BSF    03.5
0BF9:  BCF    09.0
*
0C89:  BCF    03.5
0C8A:  BSF    09.0
0C8B:  BSF    03.5
0C8C:  BCF    09.0
*
0CCE:  BCF    03.5
0CCF:  BSF    09.0
0CD0:  BSF    03.5
0CD1:  BCF    09.0
....................    delay_us(2); 
*
0137:  GOTO   138
*
016E:  GOTO   16F
*
0BB5:  GOTO   3B6
*
0BFA:  GOTO   3FB
*
0C8D:  GOTO   48E
*
0CD2:  GOTO   4D3
....................    lcd_output_enable(0); 
*
0138:  BCF    03.5
0139:  BCF    09.0
013A:  BSF    03.5
013B:  BCF    09.0
*
016F:  BCF    03.5
0170:  BCF    09.0
0171:  BSF    03.5
0172:  BCF    09.0
*
0BB6:  BCF    03.5
0BB7:  BCF    09.0
0BB8:  BSF    03.5
0BB9:  BCF    09.0
0BBA:  BCF    03.5
0BBB:  CLRF   2B
0BBC:  BTFSC  0B.7
0BBD:  BSF    2B.7
0BBE:  BCF    0B.7
*
0BFB:  BCF    03.5
0BFC:  BCF    09.0
0BFD:  BSF    03.5
0BFE:  BCF    09.0
0BFF:  BCF    03.5
0C00:  CLRF   2B
0C01:  BTFSC  0B.7
0C02:  BSF    2B.7
0C03:  BCF    0B.7
*
0C8E:  BCF    03.5
0C8F:  BCF    09.0
0C90:  BSF    03.5
0C91:  BCF    09.0
0C92:  BCF    03.5
0C93:  CLRF   2B
0C94:  BTFSC  0B.7
0C95:  BSF    2B.7
0C96:  BCF    0B.7
*
0CD3:  BCF    03.5
0CD4:  BCF    09.0
0CD5:  BSF    03.5
0CD6:  BCF    09.0
0CD7:  BCF    03.5
0CD8:  CLRF   2B
0CD9:  BTFSC  0B.7
0CDA:  BSF    2B.7
0CDB:  BCF    0B.7
.................... } 
....................  
.................... void lcd_send_byte(unsigned int8 address, unsigned int8 n) 
.................... { 
....................   #if defined(__PCB__) 
....................    set_tris_lcd(LCD_OUTPUT_MAP); 
....................   #else 
....................    lcd_enable_tris(); 
*
0058:  BSF    03.5
0059:  BCF    09.0
....................    lcd_rs_tris(); 
005A:  BCF    09.1
....................    lcd_rw_tris(); 
005B:  BCF    09.2
....................   #endif 
....................  
....................    lcd_output_rs(0); 
005C:  BCF    03.5
005D:  BCF    09.1
005E:  BSF    03.5
005F:  BCF    09.1
....................    while ( bit_test(lcd_read_byte(),7) ) ; 
*
00EB:  MOVF   78,W
00EC:  MOVWF  28
00ED:  BTFSC  28.7
00EE:  GOTO   060
....................    lcd_output_rs(address); 
00EF:  MOVF   26,F
00F0:  BTFSS  03.2
00F1:  GOTO   0F6
00F2:  BCF    03.5
00F3:  BCF    09.1
00F4:  GOTO   0F8
00F5:  BSF    03.5
00F6:  BCF    03.5
00F7:  BSF    09.1
00F8:  BSF    03.5
00F9:  BCF    09.1
....................    delay_cycles(1); 
00FA:  NOP
....................    lcd_output_rw(0); 
00FB:  BCF    03.5
00FC:  BCF    09.2
00FD:  BSF    03.5
00FE:  BCF    09.2
....................    delay_cycles(1); 
00FF:  NOP
....................    lcd_output_enable(0); 
0100:  BCF    03.5
0101:  BCF    09.0
0102:  BSF    03.5
0103:  BCF    09.0
....................    lcd_send_nibble(n >> 4); 
0104:  SWAPF  27,W
0105:  MOVWF  28
0106:  MOVLW  0F
0107:  ANDWF  28,F
0108:  MOVF   28,W
0109:  MOVWF  29
....................    lcd_send_nibble(n & 0xf); 
*
013C:  MOVF   27,W
013D:  ANDLW  0F
013E:  MOVWF  28
013F:  MOVF   28,W
0140:  MOVWF  29
*
0173:  BCF    03.5
0174:  RETURN
.................... } 
....................  
.................... #if defined(LCD_EXTENDED_NEWLINE) 
.................... unsigned int8 g_LcdX, g_LcdY; 
.................... #endif 
....................  
.................... void lcd_init(void)  
.................... { 
....................    unsigned int8 i; 
....................    unsigned int8 LCD_INIT_STRING[4] = {0x20 | (LCD_TYPE << 2), 0xc, 1, 6}; 
*
0B57:  MOVLW  28
0B58:  MOVWF  48
0B59:  MOVLW  0C
0B5A:  MOVWF  49
0B5B:  MOVLW  01
0B5C:  MOVWF  4A
0B5D:  MOVLW  06
0B5E:  MOVWF  4B
*
0C2E:  MOVLW  28
0C2F:  BCF    03.5
0C30:  MOVWF  48
0C31:  MOVLW  0C
0C32:  MOVWF  49
0C33:  MOVLW  01
0C34:  MOVWF  4A
0C35:  MOVLW  06
0C36:  MOVWF  4B
....................                              // These bytes need to be sent to the LCD 
....................                              // to start it up. 
....................     
....................  
....................    lcd_output_enable(0); 
*
0B5F:  BCF    09.0
0B60:  BSF    03.5
0B61:  BCF    09.0
*
0C37:  BCF    09.0
0C38:  BSF    03.5
0C39:  BCF    09.0
....................    lcd_output_rs(0); 
*
0B62:  BCF    03.5
0B63:  BCF    09.1
0B64:  BSF    03.5
0B65:  BCF    09.1
*
0C3A:  BCF    03.5
0C3B:  BCF    09.1
0C3C:  BSF    03.5
0C3D:  BCF    09.1
....................    lcd_output_rw(0); 
*
0B66:  BCF    03.5
0B67:  BCF    09.2
0B68:  BSF    03.5
0B69:  BCF    09.2
*
0C3E:  BCF    03.5
0C3F:  BCF    09.2
0C40:  BSF    03.5
0C41:  BCF    09.2
....................  
....................  #if defined(__PCB__) 
....................    set_tris_lcd(LCD_OUTPUT_MAP); 
....................  #else 
....................   #if (defined(LCD_DATA4) && defined(LCD_DATA5) && defined(LCD_DATA6) && defined(LCD_DATA7)) 
....................    output_drive(LCD_DATA4); 
*
0B6A:  BCF    08.4
*
0C42:  BCF    08.4
....................    output_drive(LCD_DATA5); 
*
0B6B:  BCF    08.5
*
0C43:  BCF    08.5
....................    output_drive(LCD_DATA6); 
*
0B6C:  BCF    08.6
*
0C44:  BCF    08.6
....................    output_drive(LCD_DATA7); 
*
0B6D:  BCF    08.7
*
0C45:  BCF    08.7
....................   #else 
....................    lcdtris.data = 0x0; 
....................   #endif 
....................    lcd_enable_tris(); 
*
0B6E:  BCF    09.0
*
0C46:  BCF    09.0
....................    lcd_rs_tris(); 
*
0B6F:  BCF    09.1
*
0C47:  BCF    09.1
....................    lcd_rw_tris(); 
*
0B70:  BCF    09.2
0B71:  BCF    03.5
0B72:  CLRF   2B
0B73:  BTFSC  0B.7
0B74:  BSF    2B.7
0B75:  BCF    0B.7
*
0C48:  BCF    09.2
0C49:  BCF    03.5
0C4A:  CLRF   2B
0C4B:  BTFSC  0B.7
0C4C:  BSF    2B.7
0C4D:  BCF    0B.7
....................  #endif 
....................      
....................    delay_ms(15); 
*
0B76:  MOVLW  0F
0B77:  BSF    03.5
0B78:  MOVWF  22
0B79:  BCF    0A.3
0B7A:  BCF    03.5
0B7B:  CALL   175
0B7C:  BSF    0A.3
0B7D:  BTFSC  2B.7
0B7E:  BSF    0B.7
*
0C4E:  MOVLW  0F
0C4F:  BSF    03.5
0C50:  MOVWF  22
0C51:  BCF    0A.3
0C52:  BCF    03.5
0C53:  CALL   175
0C54:  BSF    0A.3
0C55:  BTFSC  2B.7
0C56:  BSF    0B.7
....................    for(i=1;i<=3;++i) 
*
0B7F:  MOVLW  01
0B80:  MOVWF  47
0B81:  MOVF   47,W
0B82:  SUBLW  03
0B83:  BTFSS  03.0
0B84:  GOTO   3CA
*
0C57:  MOVLW  01
0C58:  MOVWF  47
0C59:  MOVF   47,W
0C5A:  SUBLW  03
0C5B:  BTFSS  03.0
0C5C:  GOTO   4A2
....................    { 
....................        lcd_send_nibble(3); 
*
0B85:  MOVLW  03
0B86:  BSF    03.5
0B87:  MOVWF  29
*
0C5D:  MOVLW  03
0C5E:  BSF    03.5
0C5F:  MOVWF  29
....................        delay_ms(5); 
*
0BBF:  MOVLW  05
0BC0:  BSF    03.5
0BC1:  MOVWF  22
0BC2:  BCF    0A.3
0BC3:  BCF    03.5
0BC4:  CALL   175
0BC5:  BSF    0A.3
0BC6:  BTFSC  2B.7
0BC7:  BSF    0B.7
0BC8:  INCF   47,F
0BC9:  GOTO   381
*
0C97:  MOVLW  05
0C98:  BSF    03.5
0C99:  MOVWF  22
0C9A:  BCF    0A.3
0C9B:  BCF    03.5
0C9C:  CALL   175
0C9D:  BSF    0A.3
0C9E:  BTFSC  2B.7
0C9F:  BSF    0B.7
0CA0:  INCF   47,F
0CA1:  GOTO   459
....................    } 
....................     
....................    lcd_send_nibble(2); 
*
0BCA:  MOVLW  02
0BCB:  BSF    03.5
0BCC:  MOVWF  29
*
0CA2:  MOVLW  02
0CA3:  BSF    03.5
0CA4:  MOVWF  29
....................    delay_ms(5); 
*
0C04:  MOVLW  05
0C05:  BSF    03.5
0C06:  MOVWF  22
0C07:  BCF    0A.3
0C08:  BCF    03.5
0C09:  CALL   175
0C0A:  BSF    0A.3
0C0B:  BTFSC  2B.7
0C0C:  BSF    0B.7
*
0CDC:  MOVLW  05
0CDD:  BSF    03.5
0CDE:  MOVWF  22
0CDF:  BCF    0A.3
0CE0:  BCF    03.5
0CE1:  CALL   175
0CE2:  BSF    0A.3
0CE3:  BTFSC  2B.7
0CE4:  BSF    0B.7
....................    for(i=0;i<=3;++i) 
*
0C0D:  CLRF   47
0C0E:  MOVF   47,W
0C0F:  SUBLW  03
0C10:  BTFSS  03.0
0C11:  GOTO   42A
*
0CE5:  CLRF   47
0CE6:  MOVF   47,W
0CE7:  SUBLW  03
0CE8:  BTFSS  03.0
0CE9:  GOTO   502
....................       lcd_send_byte(0,LCD_INIT_STRING[i]); 
*
0C12:  MOVLW  48
0C13:  ADDWF  47,W
0C14:  MOVWF  04
0C15:  BCF    03.7
0C16:  MOVF   00,W
0C17:  MOVWF  4C
0C18:  CLRF   2B
0C19:  BTFSC  0B.7
0C1A:  BSF    2B.7
0C1B:  BCF    0B.7
0C1C:  BSF    03.5
0C1D:  CLRF   26
0C1E:  BCF    03.5
0C1F:  MOVF   4C,W
0C20:  BSF    03.5
0C21:  MOVWF  27
0C22:  BCF    0A.3
0C23:  BCF    03.5
0C24:  CALL   058
0C25:  BSF    0A.3
0C26:  BTFSC  2B.7
0C27:  BSF    0B.7
*
0CEA:  MOVLW  48
0CEB:  ADDWF  47,W
0CEC:  MOVWF  04
0CED:  BCF    03.7
0CEE:  MOVF   00,W
0CEF:  MOVWF  4C
0CF0:  CLRF   2B
0CF1:  BTFSC  0B.7
0CF2:  BSF    2B.7
0CF3:  BCF    0B.7
0CF4:  BSF    03.5
0CF5:  CLRF   26
0CF6:  BCF    03.5
0CF7:  MOVF   4C,W
0CF8:  BSF    03.5
0CF9:  MOVWF  27
0CFA:  BCF    0A.3
0CFB:  BCF    03.5
0CFC:  CALL   058
0CFD:  BSF    0A.3
0CFE:  BTFSC  2B.7
0CFF:  BSF    0B.7
....................  
....................   #if defined(LCD_EXTENDED_NEWLINE) 
*
0C28:  INCF   47,F
0C29:  GOTO   40E
*
0D00:  INCF   47,F
0D01:  GOTO   4E6
....................    g_LcdX = 0; 
....................    g_LcdY = 0; 
....................   #endif 
.................... } 
....................  
.................... void lcd_gotoxy(unsigned int8 x, unsigned int8 y) 
.................... { 
....................    unsigned int8 address; 
....................     
....................    if(y!=1) 
*
019E:  DECFSZ 23,W
019F:  GOTO   1A1
01A0:  GOTO   1A4
*
01C2:  DECFSZ 23,W
01C3:  GOTO   1C5
01C4:  GOTO   1C8
....................       address=LCD_LINE_TWO; 
*
01A1:  MOVLW  40
01A2:  MOVWF  24
01A3:  GOTO   1A5
*
01C5:  MOVLW  40
01C6:  MOVWF  24
01C7:  GOTO   1C9
....................    else 
....................       address=0; 
*
01A4:  CLRF   24
*
01C8:  CLRF   24
....................       
....................    address+=x-1; 
*
01A5:  MOVLW  01
01A6:  SUBWF  22,W
01A7:  ADDWF  24,F
*
01C9:  MOVLW  01
01CA:  SUBWF  22,W
01CB:  ADDWF  24,F
....................    lcd_send_byte(0,0x80|address); 
*
01A8:  MOVF   24,W
01A9:  IORLW  80
01AA:  MOVWF  25
01AB:  CLRF   26
01AC:  MOVF   25,W
01AD:  MOVWF  27
01AE:  BCF    03.5
01AF:  CALL   058
*
01CC:  MOVF   24,W
01CD:  IORLW  80
01CE:  MOVWF  25
01CF:  CLRF   26
01D0:  MOVF   25,W
01D1:  MOVWF  27
01D2:  BCF    03.5
01D3:  CALL   058
....................  
....................   #if defined(LCD_EXTENDED_NEWLINE) 
....................    g_LcdX = x - 1; 
....................    g_LcdY = y - 1; 
....................   #endif 
.................... } 
....................  
.................... void lcd_putc(char c) 
.................... { 
....................    switch (c) 
*
018A:  BSF    03.5
018B:  MOVF   21,W
018C:  XORLW  07
018D:  BCF    03.5
018E:  BTFSC  03.2
018F:  GOTO   19A
0190:  XORLW  0B
0191:  BTFSC  03.2
0192:  GOTO   1B1
0193:  XORLW  06
0194:  BTFSC  03.2
0195:  GOTO   1BD
0196:  XORLW  02
0197:  BTFSC  03.2
0198:  GOTO   1D5
0199:  GOTO   1DC
....................    { 
....................       case '\a'   :  lcd_gotoxy(1,1);     break; 
019A:  MOVLW  01
019B:  BSF    03.5
019C:  MOVWF  22
019D:  MOVWF  23
*
01B0:  GOTO   1E3
....................  
....................       case '\f'   :  lcd_send_byte(0,1); 
01B1:  BSF    03.5
01B2:  CLRF   26
01B3:  MOVLW  01
01B4:  MOVWF  27
01B5:  BCF    03.5
01B6:  CALL   058
....................                      delay_ms(2); 
01B7:  MOVLW  02
01B8:  BSF    03.5
01B9:  MOVWF  22
01BA:  BCF    03.5
01BB:  CALL   175
....................                     #if defined(LCD_EXTENDED_NEWLINE) 
....................                      g_LcdX = 0; 
....................                      g_LcdY = 0; 
....................                     #endif 
....................                      break; 
01BC:  GOTO   1E3
....................  
....................      #if defined(LCD_EXTENDED_NEWLINE) 
....................       case '\r'   :  lcd_gotoxy(1, g_LcdY+1);   break; 
....................       case '\n'   : 
....................          while (g_LcdX++ < LCD_LINE_LENGTH) 
....................          { 
....................             lcd_send_byte(1, ' '); 
....................          } 
....................          lcd_gotoxy(1, g_LcdY+2); 
....................          break; 
....................      #else 
....................       case '\n'   : lcd_gotoxy(1,2);        break; 
01BD:  MOVLW  01
01BE:  BSF    03.5
01BF:  MOVWF  22
01C0:  MOVLW  02
01C1:  MOVWF  23
*
01D4:  GOTO   1E3
....................      #endif 
....................       
....................       case '\b'   : lcd_send_byte(0,0x10);  break; 
01D5:  BSF    03.5
01D6:  CLRF   26
01D7:  MOVLW  10
01D8:  MOVWF  27
01D9:  BCF    03.5
01DA:  CALL   058
01DB:  GOTO   1E3
....................       
....................      #if defined(LCD_EXTENDED_NEWLINE) 
....................       default     :  
....................          if (g_LcdX < LCD_LINE_LENGTH) 
....................          { 
....................             lcd_send_byte(1, c); 
....................             g_LcdX++; 
....................          } 
....................          break; 
....................      #else 
....................       default     : lcd_send_byte(1,c);     break; 
01DC:  MOVLW  01
01DD:  BSF    03.5
01DE:  MOVWF  26
01DF:  MOVF   21,W
01E0:  MOVWF  27
01E1:  BCF    03.5
01E2:  CALL   058
....................      #endif 
....................    } 
01E3:  RETURN
.................... } 
....................   
.................... char lcd_getc(unsigned int8 x, unsigned int8 y) 
.................... { 
....................    char value; 
....................  
....................    lcd_gotoxy(x,y); 
....................    while ( bit_test(lcd_read_byte(),7) ); // wait until busy flag is low 
....................    lcd_output_rs(1); 
....................    value = lcd_read_byte(); 
....................    lcd_output_rs(0); 
....................     
....................    return(value); 
.................... } 
....................  
.................... // write a custom character to the ram 
.................... // which is 0-7 and specifies which character array we are modifying. 
.................... // ptr points to an array of 8 bytes, where each byte is the next row of 
.................... //    pixels.  only bits 0-4 are used.  the last row is the cursor row, and 
.................... //    usually you will want to leave this byte 0x00. 
.................... void lcd_set_cgram_char(unsigned int8 which, unsigned int8 *ptr) 
.................... { 
....................    unsigned int i; 
....................  
....................    which <<= 3; 
....................    which &= 0x38; 
....................  
....................    lcd_send_byte(0, 0x40 | which);  //set cgram address 
....................  
....................    for(i=0; i<8; i++) 
....................    { 
....................       lcd_send_byte(1, *ptr++); 
....................    } 
....................    
....................    #if defined(LCD_EXTENDED_NEWLINE) 
....................     lcd_gotoxy(g_LcdX+1, g_LcdY+1);  //set ddram address 
....................    #endif 
.................... } 
....................  
.................... void lcd_cursor_on(int1 on) 
.................... { 
....................    if (on) 
....................    { 
....................       lcd_send_byte(0,0x0F);           //turn LCD cursor ON 
....................    } 
....................    else 
....................    { 
....................       lcd_send_byte(0,0x0C);           //turn LCD cursor OFF 
....................    } 
.................... } 
....................  
.................... #endif 
....................  
....................  
.................... // constantes 
.................... const float v_equal = 80; 
.................... const float v_min = 10; 
....................  
....................  
.................... // Funes 
.................... float convertVoltage(unsigned int digitalRead); 
.................... void selectMenu(); 
.................... void showMenu(); 
.................... void readVoltages(); 
.................... void setupSwitches(); 
.................... void bateryStatus(); 
.................... void checkChargeMode(); 
....................  
....................  
.................... int t_up = 0; 
.................... int menu = 0; 
.................... float v1_dc, v2_dc, v3_dc, v4_dc = 0 ; 
.................... float temp, umd = 30; 
....................  
.................... #int_ext 
.................... void trataExt(){ 
....................       while(!input(PIN_B0)){ 
*
0800:  BSF    03.5
0801:  BSF    06.0
0802:  BCF    03.5
0803:  BTFSC  06.0
0804:  GOTO   353
....................          clear; 
0805:  MOVLW  0C
0806:  BSF    03.5
0807:  MOVWF  21
0808:  BCF    0A.3
0809:  BCF    03.5
080A:  CALL   18A
080B:  BSF    0A.3
....................          /* porcentagem de carga = somatorio das cargas *100/1020*/ 
....................          readVoltages(); 
080C:  BCF    0A.3
080D:  CALL   1E4
080E:  BSF    0A.3
....................          setupSwitches(); 
....................          bateryStatus(); 
*
089C:  BCF    0A.3
089D:  CALL   275
089E:  BSF    0A.3
....................   
....................          float carga = v1_dc + v2_dc + v3_dc + v4_dc; 
089F:  BCF    03.1
08A0:  MOVF   31,W
08A1:  MOVWF  6C
08A2:  MOVF   30,W
08A3:  MOVWF  6B
08A4:  MOVF   2F,W
08A5:  MOVWF  6A
08A6:  MOVF   2E,W
08A7:  MOVWF  69
08A8:  MOVF   35,W
08A9:  MOVWF  70
08AA:  MOVF   34,W
08AB:  MOVWF  6F
08AC:  MOVF   33,W
08AD:  MOVWF  6E
08AE:  MOVF   32,W
08AF:  MOVWF  6D
08B0:  BCF    0A.3
08B1:  CALL   2EE
08B2:  BSF    0A.3
08B3:  MOVF   7A,W
08B4:  MOVWF  68
08B5:  MOVF   79,W
08B6:  MOVWF  67
08B7:  MOVF   78,W
08B8:  MOVWF  66
08B9:  MOVF   77,W
08BA:  MOVWF  65
08BB:  BCF    03.1
08BC:  MOVF   68,W
08BD:  MOVWF  6C
08BE:  MOVF   67,W
08BF:  MOVWF  6B
08C0:  MOVF   66,W
08C1:  MOVWF  6A
08C2:  MOVF   65,W
08C3:  MOVWF  69
08C4:  MOVF   39,W
08C5:  MOVWF  70
08C6:  MOVF   38,W
08C7:  MOVWF  6F
08C8:  MOVF   37,W
08C9:  MOVWF  6E
08CA:  MOVF   36,W
08CB:  MOVWF  6D
08CC:  BCF    0A.3
08CD:  CALL   2EE
08CE:  BSF    0A.3
08CF:  MOVF   7A,W
08D0:  MOVWF  68
08D1:  MOVF   79,W
08D2:  MOVWF  67
08D3:  MOVF   78,W
08D4:  MOVWF  66
08D5:  MOVF   77,W
08D6:  MOVWF  65
08D7:  BCF    03.1
08D8:  MOVF   68,W
08D9:  MOVWF  6C
08DA:  MOVF   67,W
08DB:  MOVWF  6B
08DC:  MOVF   66,W
08DD:  MOVWF  6A
08DE:  MOVF   65,W
08DF:  MOVWF  69
08E0:  MOVF   3D,W
08E1:  MOVWF  70
08E2:  MOVF   3C,W
08E3:  MOVWF  6F
08E4:  MOVF   3B,W
08E5:  MOVWF  6E
08E6:  MOVF   3A,W
08E7:  MOVWF  6D
08E8:  BCF    0A.3
08E9:  CALL   2EE
08EA:  BSF    0A.3
08EB:  MOVF   7A,W
08EC:  MOVWF  64
08ED:  MOVF   79,W
08EE:  MOVWF  63
08EF:  MOVF   78,W
08F0:  MOVWF  62
08F1:  MOVF   77,W
08F2:  MOVWF  61
....................          carga = carga*100/1020; 
08F3:  MOVF   64,W
08F4:  BSF    03.5
08F5:  MOVWF  24
08F6:  BCF    03.5
08F7:  MOVF   63,W
08F8:  BSF    03.5
08F9:  MOVWF  23
08FA:  BCF    03.5
08FB:  MOVF   62,W
08FC:  BSF    03.5
08FD:  MOVWF  22
08FE:  BCF    03.5
08FF:  MOVF   61,W
0900:  BSF    03.5
0901:  MOVWF  21
0902:  CLRF   28
0903:  CLRF   27
0904:  MOVLW  48
0905:  MOVWF  26
0906:  MOVLW  85
0907:  MOVWF  25
*
097C:  MOVF   7A,W
097D:  BCF    03.5
097E:  MOVWF  68
097F:  MOVF   79,W
0980:  MOVWF  67
0981:  MOVF   78,W
0982:  MOVWF  66
0983:  MOVF   77,W
0984:  MOVWF  65
0985:  MOVF   68,W
0986:  MOVWF  6C
0987:  MOVF   67,W
0988:  MOVWF  6B
0989:  MOVF   66,W
098A:  MOVWF  6A
098B:  MOVF   65,W
098C:  MOVWF  69
098D:  CLRF   70
098E:  CLRF   6F
098F:  MOVLW  7F
0990:  MOVWF  6E
0991:  MOVLW  88
0992:  MOVWF  6D
*
0A5C:  MOVF   7A,W
0A5D:  MOVWF  64
0A5E:  MOVF   79,W
0A5F:  MOVWF  63
0A60:  MOVF   78,W
0A61:  MOVWF  62
0A62:  MOVF   77,W
0A63:  MOVWF  61
....................          printf(LCD_PUTC,"**** FALTA ****"); 
0A64:  MOVLW  7A
0A65:  BSF    03.6
0A66:  MOVWF  0D
0A67:  MOVLW  06
0A68:  MOVWF  0F
....................          printf(LCD_PUTC,"\n  CARGA %.2f %%",  carga); 
*
0AC4:  MOVLW  82
0AC5:  MOVWF  0D
0AC6:  MOVLW  06
0AC7:  MOVWF  0F
0AC8:  BCF    03.0
0AC9:  MOVLW  09
0ACA:  BCF    03.6
0ACB:  MOVWF  65
*
0B2A:  MOVLW  89
0B2B:  MOVWF  04
0B2C:  MOVF   64,W
0B2D:  MOVWF  68
0B2E:  MOVF   63,W
0B2F:  MOVWF  67
0B30:  MOVF   62,W
0B31:  MOVWF  66
0B32:  MOVF   61,W
0B33:  MOVWF  65
0B34:  MOVLW  02
0B35:  MOVWF  69
0B36:  BCF    0A.3
0B37:  CALL   45F
0B38:  BSF    0A.3
0B39:  MOVLW  20
0B3A:  BSF    03.5
0B3B:  MOVWF  21
0B3C:  BCF    0A.3
0B3D:  BCF    03.5
0B3E:  CALL   18A
0B3F:  BSF    0A.3
0B40:  MOVLW  25
0B41:  BSF    03.5
0B42:  MOVWF  21
0B43:  BCF    0A.3
0B44:  BCF    03.5
0B45:  CALL   18A
0B46:  BSF    0A.3
....................          delay_ms(2000); 
0B47:  MOVLW  08
0B48:  MOVWF  65
0B49:  MOVLW  FA
0B4A:  BSF    03.5
0B4B:  MOVWF  22
0B4C:  BCF    0A.3
0B4D:  BCF    03.5
0B4E:  CALL   175
0B4F:  BSF    0A.3
0B50:  DECFSZ 65,F
0B51:  GOTO   349
0B52:  GOTO   000
....................       } 
.................... } 
....................  
....................  
.................... // timer checkagem temperatura 
0B53:  BCF    0B.1
0B54:  BCF    0A.3
0B55:  BCF    0A.4
0B56:  GOTO   031
.................... #int_timer1 
.................... void trata_t1()  
.................... { 
....................         set_timer1(65536 - 65200); 
*
068B:  CLRF   0E
068C:  MOVLW  01
068D:  MOVWF  0F
068E:  MOVLW  50
068F:  MOVWF  0E
....................         if (temp > 40){ 
0690:  CLRF   68
0691:  CLRF   67
0692:  MOVLW  20
0693:  MOVWF  66
0694:  MOVLW  84
0695:  MOVWF  65
0696:  MOVF   41,W
0697:  MOVWF  6C
0698:  MOVF   40,W
0699:  MOVWF  6B
069A:  MOVF   3F,W
069B:  MOVWF  6A
069C:  MOVF   3E,W
069D:  MOVWF  69
069E:  CALL   236
069F:  BTFSS  03.0
06A0:  GOTO   759
....................               printf(LCD_PUTC,"*****ALERTA*****"); 
06A1:  MOVLW  5D
06A2:  BSF    03.6
06A3:  MOVWF  0D
06A4:  MOVLW  07
06A5:  MOVWF  0F
....................               printf(LCD_PUTC,"\nTEMPERATURA");               
*
06FD:  MOVLW  66
06FE:  MOVWF  0D
06FF:  MOVLW  07
0700:  MOVWF  0F
....................         } 
*
0759:  BCF    0C.0
075A:  BCF    0A.3
075B:  BCF    0A.4
075C:  GOTO   031
.................... } 
....................  
.................... void setup(){ 
....................    lcd_init(); 
....................     
....................    // enable interrupts 
....................    enable_interrupts(global | int_ext | int_timer0); 
*
0C2A:  MOVLW  F0
0C2B:  IORWF  0B,F
....................    ext_int_edge(H_TO_L); 
0C2C:  BSF    03.5
0C2D:  BCF    01.6
....................     
....................    // Enable timer 
....................  
....................    //enable_interrupts(GLOBAL | INT_TIMER1); 
....................    //set_timer1(65536 - 65200); 
....................  
....................    // lcd 
....................    lcd_init(); 
....................    Port_b_pullups(true); 
*
0D02:  BSF    03.5
0D03:  BCF    01.7
....................     
....................    // adc 
....................    setup_adc(ADC_CLOCK_DIV_32); 
0D04:  BCF    1F.6
0D05:  BCF    03.5
0D06:  BCF    1F.6
0D07:  BSF    1F.7
0D08:  BSF    03.5
0D09:  BCF    1F.7
0D0A:  BCF    03.5
0D0B:  BSF    1F.0
....................    setup_adc_ports(V1); 
0D0C:  BSF    03.5
0D0D:  BCF    1F.0
0D0E:  BSF    1F.1
0D0F:  BSF    1F.2
0D10:  BSF    1F.3
....................    setup_wdt(WDT_2304MS); 
0D11:  MOVLW  0F
0D12:  MOVWF  77
0D13:  BCF    03.5
0D14:  CLRF   01
0D15:  MOVLW  81
0D16:  MOVWF  04
0D17:  BCF    03.7
0D18:  MOVF   00,W
0D19:  ANDLW  F0
0D1A:  IORLW  07
0D1B:  MOVWF  00
0D1C:  CLRWDT
0D1D:  MOVF   00,W
0D1E:  ANDLW  F7
0D1F:  BTFSC  77.3
0D20:  ANDLW  F0
0D21:  IORWF  77,W
0D22:  MOVWF  00
....................  
....................    // inicialisa reles 
....................    output_low(S1); 
0D23:  BSF    03.5
0D24:  BCF    08.0
0D25:  BCF    03.5
0D26:  BCF    08.0
....................    output_low(S2); 
0D27:  BSF    03.5
0D28:  BCF    08.1
0D29:  BCF    03.5
0D2A:  BCF    08.1
....................    output_low(S3); 
0D2B:  BSF    03.5
0D2C:  BCF    08.2
0D2D:  BCF    03.5
0D2E:  BCF    08.2
0D2F:  BSF    0A.3
0D30:  BCF    0A.4
0D31:  GOTO   61B (RETURN)
.................... } 
....................  
.................... void main() 
*
0E00:  MOVF   03,W
0E01:  ANDLW  1F
0E02:  MOVWF  03
0E03:  CLRF   2C
0E04:  CLRF   2D
0E05:  CLRF   3D
0E06:  CLRF   3C
0E07:  CLRF   3B
0E08:  CLRF   3A
0E09:  CLRF   45
0E0A:  CLRF   44
0E0B:  MOVLW  70
0E0C:  MOVWF  43
0E0D:  MOVLW  83
0E0E:  MOVWF  42
0E0F:  MOVLW  FF
0E10:  MOVWF  46
0E11:  BSF    03.5
0E12:  BSF    1F.0
0E13:  BSF    1F.1
0E14:  BSF    1F.2
0E15:  BCF    1F.3
0E16:  MOVLW  07
0E17:  MOVWF  1C
0E18:  BCF    03.7
.................... { 
....................      setup(); 
0E19:  BCF    03.5
0E1A:  GOTO   357
....................       
....................      while (True){ 
....................          restart_wdt(); 
0E1B:  CLRWDT
....................          selectMenu(); 
0E1C:  BCF    0A.3
0E1D:  GOTO   7A2
0E1E:  BSF    0A.3
....................          checkChargeMode(); 
0E1F:  GOTO   532
....................          showMenu();  
0E20:  BSF    0A.4
0E21:  BCF    0A.3
0E22:  GOTO   000
0E23:  BCF    0A.4
0E24:  BSF    0A.3
0E25:  CLRF   2B
0E26:  BTFSC  0B.7
0E27:  BSF    2B.7
0E28:  BCF    0B.7
....................          readVoltages(); 
0E29:  BCF    0A.3
0E2A:  CALL   1E4
0E2B:  BSF    0A.3
0E2C:  BTFSC  2B.7
0E2D:  BSF    0B.7
0E2E:  CLRF   2B
0E2F:  BTFSC  0B.7
0E30:  BSF    2B.7
0E31:  BCF    0B.7
....................          bateryStatus(); 
0E32:  BCF    0A.3
0E33:  CALL   275
0E34:  BSF    0A.3
0E35:  BTFSC  2B.7
0E36:  BSF    0B.7
....................          delay_ms(400);   
0E37:  MOVLW  02
0E38:  MOVWF  47
0E39:  CLRF   2B
0E3A:  BTFSC  0B.7
0E3B:  BSF    2B.7
0E3C:  BCF    0B.7
0E3D:  MOVLW  C8
0E3E:  BSF    03.5
0E3F:  MOVWF  22
0E40:  BCF    0A.3
0E41:  BCF    03.5
0E42:  CALL   175
0E43:  BSF    0A.3
0E44:  BTFSC  2B.7
0E45:  BSF    0B.7
0E46:  DECFSZ 47,F
0E47:  GOTO   639
0E48:  GOTO   61B
....................       } 
.................... } 
....................  
0E49:  SLEEP
.................... // Le as tensoes analogicas da bateria  
.................... void readVoltages(){ // AQUI TA ZUADO 
....................  
....................       delay_adc; 
*
01E4:  MOVLW  01
01E5:  BSF    03.5
01E6:  MOVWF  22
01E7:  BCF    03.5
01E8:  CALL   175
....................       set_adc_channel(0); 
01E9:  MOVLW  00
01EA:  MOVWF  78
01EB:  MOVF   1F,W
01EC:  ANDLW  C7
01ED:  IORWF  78,W
01EE:  MOVWF  1F
....................       delay_adc; 
01EF:  MOVLW  01
01F0:  BSF    03.5
01F1:  MOVWF  22
01F2:  BCF    03.5
01F3:  CALL   175
....................       v1_dc = read_adc(); 
01F4:  BSF    1F.2
01F5:  BTFSC  1F.2
01F6:  GOTO   1F5
01F7:  MOVF   1E,W
01F8:  CLRF   66
01F9:  MOVWF  65
*
0216:  MOVF   7A,W
0217:  MOVWF  31
0218:  MOVF   79,W
0219:  MOVWF  30
021A:  MOVF   78,W
021B:  MOVWF  2F
021C:  MOVF   77,W
021D:  MOVWF  2E
....................       delay_adc; 
021E:  MOVLW  01
021F:  BSF    03.5
0220:  MOVWF  22
0221:  BCF    03.5
0222:  CALL   175
....................      /* set_adc_channel(1); 
....................       delay_adc; 
....................       v2_dc = read_adc(); 
....................       delay_adc; 
....................       set_adc_channel(2); 
....................       delay_adc; 
....................       v3_dc = read_adc(); 
....................       delay_adc; 
....................       set_adc_channel(3); 
....................       delay_adc; 
....................       v4_dc = read_adc();*/ 
....................        
....................       v2_dc = 255; 
0223:  CLRF   35
0224:  CLRF   34
0225:  MOVLW  7F
0226:  MOVWF  33
0227:  MOVLW  86
0228:  MOVWF  32
....................       v3_dc = 255; 
0229:  CLRF   39
022A:  CLRF   38
022B:  MOVLW  7F
022C:  MOVWF  37
022D:  MOVLW  86
022E:  MOVWF  36
....................       v4_dc = 255; 
022F:  CLRF   3D
0230:  CLRF   3C
0231:  MOVLW  7F
0232:  MOVWF  3B
0233:  MOVLW  86
0234:  MOVWF  3A
0235:  RETURN
.................... } 
....................  
.................... // informaes do LCD 
.................... void showMenu(){ 
....................   switch(menu){ 
*
1000:  MOVLW  01
1001:  SUBWF  2D,W
1002:  ADDLW  FB
1003:  BTFSC  03.0
1004:  GOTO   50C
1005:  ADDLW  05
1006:  GOTO   50F
....................        case 1:           
1007:  CLRF   2B
1008:  BTFSC  0B.7
1009:  BSF    2B.7
100A:  BCF    0B.7
....................              clear; 
100B:  MOVLW  0C
100C:  BSF    03.5
100D:  MOVWF  21
100E:  BCF    0A.4
100F:  BCF    03.5
1010:  CALL   18A
1011:  BSF    0A.4
1012:  BTFSC  2B.7
1013:  BSF    0B.7
....................              printf(LCD_PUTC,"Bateria 1"); 
1014:  MOVLW  6D
1015:  BSF    03.6
1016:  MOVWF  0D
1017:  MOVLW  07
1018:  MOVWF  0F
....................              printf(LCD_PUTC,"\nT: %.2f V", v1_dc); 
*
1074:  MOVLW  72
1075:  MOVWF  0D
1076:  MOVLW  07
1077:  MOVWF  0F
1078:  BCF    03.0
1079:  MOVLW  04
107A:  BCF    03.6
107B:  MOVWF  65
*
10DA:  MOVLW  89
10DB:  MOVWF  04
10DC:  CLRF   2B
10DD:  BTFSC  0B.7
10DE:  BSF    2B.7
10DF:  BCF    0B.7
10E0:  MOVF   31,W
10E1:  MOVWF  68
10E2:  MOVF   30,W
10E3:  MOVWF  67
10E4:  MOVF   2F,W
10E5:  MOVWF  66
10E6:  MOVF   2E,W
10E7:  MOVWF  65
10E8:  MOVLW  02
10E9:  MOVWF  69
10EA:  BCF    0A.4
10EB:  CALL   45F
10EC:  BSF    0A.4
10ED:  BTFSC  2B.7
10EE:  BSF    0B.7
10EF:  CLRF   2B
10F0:  BTFSC  0B.7
10F1:  BSF    2B.7
10F2:  BCF    0B.7
10F3:  MOVLW  20
10F4:  BSF    03.5
10F5:  MOVWF  21
10F6:  BCF    0A.4
10F7:  BCF    03.5
10F8:  CALL   18A
10F9:  BSF    0A.4
10FA:  BTFSC  2B.7
10FB:  BSF    0B.7
10FC:  CLRF   2B
10FD:  BTFSC  0B.7
10FE:  BSF    2B.7
10FF:  BCF    0B.7
1100:  MOVLW  56
1101:  BSF    03.5
1102:  MOVWF  21
1103:  BCF    0A.4
1104:  BCF    03.5
1105:  CALL   18A
1106:  BSF    0A.4
1107:  BTFSC  2B.7
1108:  BSF    0B.7
....................              break;                                     
1109:  GOTO   50C
....................        case 2:    
110A:  CLRF   2B
110B:  BTFSC  0B.7
110C:  BSF    2B.7
110D:  BCF    0B.7
....................              clear; 
110E:  MOVLW  0C
110F:  BSF    03.5
1110:  MOVWF  21
1111:  BCF    0A.4
1112:  BCF    03.5
1113:  CALL   18A
1114:  BSF    0A.4
1115:  BTFSC  2B.7
1116:  BSF    0B.7
....................              printf(LCD_PUTC,"Bateria 2"); 
1117:  MOVLW  78
1118:  BSF    03.6
1119:  MOVWF  0D
111A:  MOVLW  07
111B:  MOVWF  0F
....................              printf(LCD_PUTC,"\nTensao 2: %f V",  v2_dc); 
*
1177:  MOVLW  7D
1178:  MOVWF  0D
1179:  MOVLW  07
117A:  MOVWF  0F
117B:  BCF    03.0
117C:  MOVLW  0B
117D:  BCF    03.6
117E:  MOVWF  65
*
11DD:  MOVLW  89
11DE:  MOVWF  04
11DF:  CLRF   2B
11E0:  BTFSC  0B.7
11E1:  BSF    2B.7
11E2:  BCF    0B.7
11E3:  MOVF   35,W
11E4:  MOVWF  68
11E5:  MOVF   34,W
11E6:  MOVWF  67
11E7:  MOVF   33,W
11E8:  MOVWF  66
11E9:  MOVF   32,W
11EA:  MOVWF  65
11EB:  MOVLW  02
11EC:  MOVWF  69
11ED:  BCF    0A.4
11EE:  CALL   45F
11EF:  BSF    0A.4
11F0:  BTFSC  2B.7
11F1:  BSF    0B.7
11F2:  CLRF   2B
11F3:  BTFSC  0B.7
11F4:  BSF    2B.7
11F5:  BCF    0B.7
11F6:  MOVLW  20
11F7:  BSF    03.5
11F8:  MOVWF  21
11F9:  BCF    0A.4
11FA:  BCF    03.5
11FB:  CALL   18A
11FC:  BSF    0A.4
11FD:  BTFSC  2B.7
11FE:  BSF    0B.7
11FF:  CLRF   2B
1200:  BTFSC  0B.7
1201:  BSF    2B.7
1202:  BCF    0B.7
1203:  MOVLW  56
1204:  BSF    03.5
1205:  MOVWF  21
1206:  BCF    0A.4
1207:  BCF    03.5
1208:  CALL   18A
1209:  BSF    0A.4
120A:  BTFSC  2B.7
120B:  BSF    0B.7
....................              break;                                      
120C:  GOTO   50C
....................        case 3:     
120D:  CLRF   2B
120E:  BTFSC  0B.7
120F:  BSF    2B.7
1210:  BCF    0B.7
....................              clear; 
1211:  MOVLW  0C
1212:  BSF    03.5
1213:  MOVWF  21
1214:  BCF    0A.4
1215:  BCF    03.5
1216:  CALL   18A
1217:  BSF    0A.4
1218:  BTFSC  2B.7
1219:  BSF    0B.7
....................              printf(LCD_PUTC,"Bateria 3"); 
121A:  MOVLW  85
121B:  BSF    03.6
121C:  MOVWF  0D
121D:  MOVLW  07
121E:  MOVWF  0F
....................              printf(LCD_PUTC,"\nTensao: %f V", v3_dc); 
*
127A:  MOVLW  8A
127B:  MOVWF  0D
127C:  MOVLW  07
127D:  MOVWF  0F
127E:  BCF    03.0
127F:  MOVLW  09
1280:  BCF    03.6
1281:  MOVWF  65
*
12E0:  MOVLW  89
12E1:  MOVWF  04
12E2:  CLRF   2B
12E3:  BTFSC  0B.7
12E4:  BSF    2B.7
12E5:  BCF    0B.7
12E6:  MOVF   39,W
12E7:  MOVWF  68
12E8:  MOVF   38,W
12E9:  MOVWF  67
12EA:  MOVF   37,W
12EB:  MOVWF  66
12EC:  MOVF   36,W
12ED:  MOVWF  65
12EE:  MOVLW  02
12EF:  MOVWF  69
12F0:  BCF    0A.4
12F1:  CALL   45F
12F2:  BSF    0A.4
12F3:  BTFSC  2B.7
12F4:  BSF    0B.7
12F5:  CLRF   2B
12F6:  BTFSC  0B.7
12F7:  BSF    2B.7
12F8:  BCF    0B.7
12F9:  MOVLW  20
12FA:  BSF    03.5
12FB:  MOVWF  21
12FC:  BCF    0A.4
12FD:  BCF    03.5
12FE:  CALL   18A
12FF:  BSF    0A.4
1300:  BTFSC  2B.7
1301:  BSF    0B.7
1302:  CLRF   2B
1303:  BTFSC  0B.7
1304:  BSF    2B.7
1305:  BCF    0B.7
1306:  MOVLW  56
1307:  BSF    03.5
1308:  MOVWF  21
1309:  BCF    0A.4
130A:  BCF    03.5
130B:  CALL   18A
130C:  BSF    0A.4
130D:  BTFSC  2B.7
130E:  BSF    0B.7
....................              break;      
130F:  GOTO   50C
....................        case 4:    
1310:  CLRF   2B
1311:  BTFSC  0B.7
1312:  BSF    2B.7
1313:  BCF    0B.7
....................              clear; 
1314:  MOVLW  0C
1315:  BSF    03.5
1316:  MOVWF  21
1317:  BCF    0A.4
1318:  BCF    03.5
1319:  CALL   18A
131A:  BSF    0A.4
131B:  BTFSC  2B.7
131C:  BSF    0B.7
....................              printf(LCD_PUTC,"Bateria 4"); 
131D:  MOVLW  91
131E:  BSF    03.6
131F:  MOVWF  0D
1320:  MOVLW  07
1321:  MOVWF  0F
....................              printf(LCD_PUTC,"\nTensao: %f V",  v4_dc); 
*
137D:  MOVLW  96
137E:  MOVWF  0D
137F:  MOVLW  07
1380:  MOVWF  0F
1381:  BCF    03.0
1382:  MOVLW  09
1383:  BCF    03.6
1384:  MOVWF  65
*
13E3:  MOVLW  89
13E4:  MOVWF  04
13E5:  CLRF   2B
13E6:  BTFSC  0B.7
13E7:  BSF    2B.7
13E8:  BCF    0B.7
13E9:  MOVF   3D,W
13EA:  MOVWF  68
13EB:  MOVF   3C,W
13EC:  MOVWF  67
13ED:  MOVF   3B,W
13EE:  MOVWF  66
13EF:  MOVF   3A,W
13F0:  MOVWF  65
13F1:  MOVLW  02
13F2:  MOVWF  69
13F3:  BCF    0A.4
13F4:  CALL   45F
13F5:  BSF    0A.4
13F6:  BTFSC  2B.7
13F7:  BSF    0B.7
13F8:  CLRF   2B
13F9:  BTFSC  0B.7
13FA:  BSF    2B.7
13FB:  BCF    0B.7
13FC:  MOVLW  20
13FD:  BSF    03.5
13FE:  MOVWF  21
13FF:  BCF    0A.4
1400:  BCF    03.5
1401:  CALL   18A
1402:  BSF    0A.4
1403:  BTFSC  2B.7
1404:  BSF    0B.7
1405:  CLRF   2B
1406:  BTFSC  0B.7
1407:  BSF    2B.7
1408:  BCF    0B.7
1409:  MOVLW  56
140A:  BSF    03.5
140B:  MOVWF  21
140C:  BCF    0A.4
140D:  BCF    03.5
140E:  CALL   18A
140F:  BSF    0A.4
1410:  BTFSC  2B.7
1411:  BSF    0B.7
....................              break;  
1412:  GOTO   50C
....................        case 5: 
1413:  CLRF   2B
1414:  BTFSC  0B.7
1415:  BSF    2B.7
1416:  BCF    0B.7
....................              clear; 
1417:  MOVLW  0C
1418:  BSF    03.5
1419:  MOVWF  21
141A:  BCF    0A.4
141B:  BCF    03.5
141C:  CALL   18A
141D:  BSF    0A.4
141E:  BTFSC  2B.7
141F:  BSF    0B.7
1420:  CLRF   2B
1421:  BTFSC  0B.7
1422:  BSF    2B.7
1423:  BCF    0B.7
....................              printf(LCD_PUTC,"\T: %f C",  temp); 
1424:  MOVLW  54
1425:  BSF    03.5
1426:  MOVWF  21
1427:  BCF    0A.4
1428:  BCF    03.5
1429:  CALL   18A
142A:  BSF    0A.4
142B:  BTFSC  2B.7
142C:  BSF    0B.7
142D:  CLRF   2B
142E:  BTFSC  0B.7
142F:  BSF    2B.7
1430:  BCF    0B.7
1431:  MOVLW  3A
1432:  BSF    03.5
1433:  MOVWF  21
1434:  BCF    0A.4
1435:  BCF    03.5
1436:  CALL   18A
1437:  BSF    0A.4
1438:  BTFSC  2B.7
1439:  BSF    0B.7
143A:  CLRF   2B
143B:  BTFSC  0B.7
143C:  BSF    2B.7
143D:  BCF    0B.7
143E:  MOVLW  20
143F:  BSF    03.5
1440:  MOVWF  21
1441:  BCF    0A.4
1442:  BCF    03.5
1443:  CALL   18A
1444:  BSF    0A.4
1445:  BTFSC  2B.7
1446:  BSF    0B.7
1447:  MOVLW  89
1448:  MOVWF  04
1449:  CLRF   2B
144A:  BTFSC  0B.7
144B:  BSF    2B.7
144C:  BCF    0B.7
144D:  MOVF   41,W
144E:  MOVWF  68
144F:  MOVF   40,W
1450:  MOVWF  67
1451:  MOVF   3F,W
1452:  MOVWF  66
1453:  MOVF   3E,W
1454:  MOVWF  65
1455:  MOVLW  02
1456:  MOVWF  69
1457:  BCF    0A.4
1458:  CALL   45F
1459:  BSF    0A.4
145A:  BTFSC  2B.7
145B:  BSF    0B.7
145C:  CLRF   2B
145D:  BTFSC  0B.7
145E:  BSF    2B.7
145F:  BCF    0B.7
1460:  MOVLW  20
1461:  BSF    03.5
1462:  MOVWF  21
1463:  BCF    0A.4
1464:  BCF    03.5
1465:  CALL   18A
1466:  BSF    0A.4
1467:  BTFSC  2B.7
1468:  BSF    0B.7
1469:  CLRF   2B
146A:  BTFSC  0B.7
146B:  BSF    2B.7
146C:  BCF    0B.7
146D:  MOVLW  43
146E:  BSF    03.5
146F:  MOVWF  21
1470:  BCF    0A.4
1471:  BCF    03.5
1472:  CALL   18A
1473:  BSF    0A.4
1474:  BTFSC  2B.7
1475:  BSF    0B.7
....................              printf(LCD_PUTC,"\nU: %f %%",  umd); 
1476:  MOVLW  9D
1477:  BSF    03.6
1478:  MOVWF  0D
1479:  MOVLW  07
147A:  MOVWF  0F
147B:  BCF    03.0
147C:  MOVLW  04
147D:  BCF    03.6
147E:  MOVWF  65
*
14DD:  MOVLW  89
14DE:  MOVWF  04
14DF:  CLRF   2B
14E0:  BTFSC  0B.7
14E1:  BSF    2B.7
14E2:  BCF    0B.7
14E3:  MOVF   45,W
14E4:  MOVWF  68
14E5:  MOVF   44,W
14E6:  MOVWF  67
14E7:  MOVF   43,W
14E8:  MOVWF  66
14E9:  MOVF   42,W
14EA:  MOVWF  65
14EB:  MOVLW  02
14EC:  MOVWF  69
14ED:  BCF    0A.4
14EE:  CALL   45F
14EF:  BSF    0A.4
14F0:  BTFSC  2B.7
14F1:  BSF    0B.7
14F2:  CLRF   2B
14F3:  BTFSC  0B.7
14F4:  BSF    2B.7
14F5:  BCF    0B.7
14F6:  MOVLW  20
14F7:  BSF    03.5
14F8:  MOVWF  21
14F9:  BCF    0A.4
14FA:  BCF    03.5
14FB:  CALL   18A
14FC:  BSF    0A.4
14FD:  BTFSC  2B.7
14FE:  BSF    0B.7
14FF:  CLRF   2B
1500:  BTFSC  0B.7
1501:  BSF    2B.7
1502:  BCF    0B.7
1503:  MOVLW  25
1504:  BSF    03.5
1505:  MOVWF  21
1506:  BCF    0A.4
1507:  BCF    03.5
1508:  CALL   18A
1509:  BSF    0A.4
150A:  BTFSC  2B.7
150B:  BSF    0B.7
....................              break;  
....................     }  
150C:  BSF    0A.3
150D:  BCF    0A.4
150E:  GOTO   623 (RETURN)
.................... } 
....................  
.................... // logica dos menus 
.................... void selectMenu(){ 
....................   if(input(up))  t_up = 1; 
*
07A2:  BSF    03.5
07A3:  BSF    06.1
07A4:  BCF    03.5
07A5:  BTFSS  06.1
07A6:  GOTO   7A9
07A7:  MOVLW  01
07A8:  MOVWF  2C
....................   if(!input(up) && t_up){ 
07A9:  BSF    03.5
07AA:  BSF    06.1
07AB:  BCF    03.5
07AC:  BTFSC  06.1
07AD:  GOTO   7B9
07AE:  MOVF   2C,F
07AF:  BTFSC  03.2
07B0:  GOTO   7B9
....................     t_up = 0; 
07B1:  CLRF   2C
....................     menu++; 
07B2:  INCF   2D,F
....................     if(menu > 5) menu = 1; 
07B3:  MOVF   2D,W
07B4:  SUBLW  05
07B5:  BTFSC  03.0
07B6:  GOTO   7B9
07B7:  MOVLW  01
07B8:  MOVWF  2D
....................   } 
07B9:  BSF    0A.3
07BA:  BCF    0A.4
07BB:  GOTO   61E (RETURN)
.................... } 
....................  
.................... // converte para o lcd o valor da tensao 
.................... float convertVoltage(int digital_value){ 
....................       return (15*digital_value)/255.0 ; 
.................... } 
....................  
.................... // Gerencia os switches para a melhor descarga da bateria.  
.................... void setupSwitches(){ 
....................    if ((v1_dc < v_min) || (v2_dc < v_min)) { output_high(S1);} 
*
080F:  MOVF   31,W
0810:  MOVWF  68
0811:  MOVF   30,W
0812:  MOVWF  67
0813:  MOVF   2F,W
0814:  MOVWF  66
0815:  MOVF   2E,W
0816:  MOVWF  65
0817:  CLRF   6C
0818:  CLRF   6B
0819:  MOVLW  20
081A:  MOVWF  6A
081B:  MOVLW  82
081C:  MOVWF  69
081D:  BCF    0A.3
081E:  CALL   236
081F:  BSF    0A.3
0820:  BTFSC  03.0
0821:  GOTO   035
0822:  MOVF   35,W
0823:  MOVWF  68
0824:  MOVF   34,W
0825:  MOVWF  67
0826:  MOVF   33,W
0827:  MOVWF  66
0828:  MOVF   32,W
0829:  MOVWF  65
082A:  CLRF   6C
082B:  CLRF   6B
082C:  MOVLW  20
082D:  MOVWF  6A
082E:  MOVLW  82
082F:  MOVWF  69
0830:  BCF    0A.3
0831:  CALL   236
0832:  BSF    0A.3
0833:  BTFSS  03.0
0834:  GOTO   03A
0835:  BSF    03.5
0836:  BCF    08.0
0837:  BCF    03.5
0838:  BSF    08.0
0839:  GOTO   03E
....................    else {output_low(S1);} 
083A:  BSF    03.5
083B:  BCF    08.0
083C:  BCF    03.5
083D:  BCF    08.0
....................     
....................    if ((v2_dc < v_min) || (v3_dc < v_min)) { output_high(S2);} 
083E:  MOVF   35,W
083F:  MOVWF  68
0840:  MOVF   34,W
0841:  MOVWF  67
0842:  MOVF   33,W
0843:  MOVWF  66
0844:  MOVF   32,W
0845:  MOVWF  65
0846:  CLRF   6C
0847:  CLRF   6B
0848:  MOVLW  20
0849:  MOVWF  6A
084A:  MOVLW  82
084B:  MOVWF  69
084C:  BCF    0A.3
084D:  CALL   236
084E:  BSF    0A.3
084F:  BTFSC  03.0
0850:  GOTO   064
0851:  MOVF   39,W
0852:  MOVWF  68
0853:  MOVF   38,W
0854:  MOVWF  67
0855:  MOVF   37,W
0856:  MOVWF  66
0857:  MOVF   36,W
0858:  MOVWF  65
0859:  CLRF   6C
085A:  CLRF   6B
085B:  MOVLW  20
085C:  MOVWF  6A
085D:  MOVLW  82
085E:  MOVWF  69
085F:  BCF    0A.3
0860:  CALL   236
0861:  BSF    0A.3
0862:  BTFSS  03.0
0863:  GOTO   069
0864:  BSF    03.5
0865:  BCF    08.1
0866:  BCF    03.5
0867:  BSF    08.1
0868:  GOTO   06D
....................    else  {output_low(S2);} 
0869:  BSF    03.5
086A:  BCF    08.1
086B:  BCF    03.5
086C:  BCF    08.1
....................     
....................    if ((v3_dc < v_min) || (v4_dc < v_min)) {output_high(S3);} 
086D:  MOVF   39,W
086E:  MOVWF  68
086F:  MOVF   38,W
0870:  MOVWF  67
0871:  MOVF   37,W
0872:  MOVWF  66
0873:  MOVF   36,W
0874:  MOVWF  65
0875:  CLRF   6C
0876:  CLRF   6B
0877:  MOVLW  20
0878:  MOVWF  6A
0879:  MOVLW  82
087A:  MOVWF  69
087B:  BCF    0A.3
087C:  CALL   236
087D:  BSF    0A.3
087E:  BTFSC  03.0
087F:  GOTO   093
0880:  MOVF   3D,W
0881:  MOVWF  68
0882:  MOVF   3C,W
0883:  MOVWF  67
0884:  MOVF   3B,W
0885:  MOVWF  66
0886:  MOVF   3A,W
0887:  MOVWF  65
0888:  CLRF   6C
0889:  CLRF   6B
088A:  MOVLW  20
088B:  MOVWF  6A
088C:  MOVLW  82
088D:  MOVWF  69
088E:  BCF    0A.3
088F:  CALL   236
0890:  BSF    0A.3
0891:  BTFSS  03.0
0892:  GOTO   098
0893:  BSF    03.5
0894:  BCF    08.2
0895:  BCF    03.5
0896:  BSF    08.2
0897:  GOTO   09C
....................    else  {output_low(S3);} 
0898:  BSF    03.5
0899:  BCF    08.2
089A:  BCF    03.5
089B:  BCF    08.2
....................     
.................... } 
....................  
.................... // verifica a tensao das baterias 
.................... void bateryStatus(){ 
....................     if (v1_dc < v_min) output_high(LB1); 
*
0275:  MOVF   31,W
0276:  MOVWF  68
0277:  MOVF   30,W
0278:  MOVWF  67
0279:  MOVF   2F,W
027A:  MOVWF  66
027B:  MOVF   2E,W
027C:  MOVWF  65
027D:  CLRF   6C
027E:  CLRF   6B
027F:  MOVLW  20
0280:  MOVWF  6A
0281:  MOVLW  82
0282:  MOVWF  69
0283:  CALL   236
0284:  BTFSS  03.0
0285:  GOTO   28D
0286:  BCF    46.0
0287:  MOVF   46,W
0288:  BSF    03.5
0289:  MOVWF  07
028A:  BCF    03.5
028B:  BSF    07.0
028C:  GOTO   293
....................     else  output_low(LB1); 
028D:  BCF    46.0
028E:  MOVF   46,W
028F:  BSF    03.5
0290:  MOVWF  07
0291:  BCF    03.5
0292:  BCF    07.0
....................      
....................     if (v2_dc < v_min)output_high(LB2); 
0293:  MOVF   35,W
0294:  MOVWF  68
0295:  MOVF   34,W
0296:  MOVWF  67
0297:  MOVF   33,W
0298:  MOVWF  66
0299:  MOVF   32,W
029A:  MOVWF  65
029B:  CLRF   6C
029C:  CLRF   6B
029D:  MOVLW  20
029E:  MOVWF  6A
029F:  MOVLW  82
02A0:  MOVWF  69
02A1:  CALL   236
02A2:  BTFSS  03.0
02A3:  GOTO   2AB
02A4:  BCF    46.1
02A5:  MOVF   46,W
02A6:  BSF    03.5
02A7:  MOVWF  07
02A8:  BCF    03.5
02A9:  BSF    07.1
02AA:  GOTO   2B1
....................     else  output_low(LB2); 
02AB:  BCF    46.1
02AC:  MOVF   46,W
02AD:  BSF    03.5
02AE:  MOVWF  07
02AF:  BCF    03.5
02B0:  BCF    07.1
....................      
....................     if (v3_dc < v_min) output_high(LB3); 
02B1:  MOVF   39,W
02B2:  MOVWF  68
02B3:  MOVF   38,W
02B4:  MOVWF  67
02B5:  MOVF   37,W
02B6:  MOVWF  66
02B7:  MOVF   36,W
02B8:  MOVWF  65
02B9:  CLRF   6C
02BA:  CLRF   6B
02BB:  MOVLW  20
02BC:  MOVWF  6A
02BD:  MOVLW  82
02BE:  MOVWF  69
02BF:  CALL   236
02C0:  BTFSS  03.0
02C1:  GOTO   2C9
02C2:  BCF    46.2
02C3:  MOVF   46,W
02C4:  BSF    03.5
02C5:  MOVWF  07
02C6:  BCF    03.5
02C7:  BSF    07.2
02C8:  GOTO   2CF
....................     else  output_low(LB3); 
02C9:  BCF    46.2
02CA:  MOVF   46,W
02CB:  BSF    03.5
02CC:  MOVWF  07
02CD:  BCF    03.5
02CE:  BCF    07.2
....................      
....................     if (v4_dc < v_min) output_high(LB4); 
02CF:  MOVF   3D,W
02D0:  MOVWF  68
02D1:  MOVF   3C,W
02D2:  MOVWF  67
02D3:  MOVF   3B,W
02D4:  MOVWF  66
02D5:  MOVF   3A,W
02D6:  MOVWF  65
02D7:  CLRF   6C
02D8:  CLRF   6B
02D9:  MOVLW  20
02DA:  MOVWF  6A
02DB:  MOVLW  82
02DC:  MOVWF  69
02DD:  CALL   236
02DE:  BTFSS  03.0
02DF:  GOTO   2E7
02E0:  BCF    46.3
02E1:  MOVF   46,W
02E2:  BSF    03.5
02E3:  MOVWF  07
02E4:  BCF    03.5
02E5:  BSF    07.3
02E6:  GOTO   2ED
....................     else  output_low(LB4); 
02E7:  BCF    46.3
02E8:  MOVF   46,W
02E9:  BSF    03.5
02EA:  MOVWF  07
02EB:  BCF    03.5
02EC:  BCF    07.3
02ED:  RETURN
.................... } 
....................  
.................... // modos de carga 
.................... void checkChargeMode(){ 
....................      if(input(CHARGE_MODE)) {   //modo flutuacao liga todas as baterias em paralelo e a fonte alimenta no modo flutuao 
*
0D32:  BSF    03.5
0D33:  BSF    06.2
0D34:  BCF    03.5
0D35:  BTFSS  06.2
0D36:  GOTO   54A
....................          output_low(CHARGE_LED); 
0D37:  BCF    46.4
0D38:  MOVF   46,W
0D39:  BSF    03.5
0D3A:  MOVWF  07
0D3B:  BCF    03.5
0D3C:  BCF    07.4
....................          output_low(S1); 
0D3D:  BSF    03.5
0D3E:  BCF    08.0
0D3F:  BCF    03.5
0D40:  BCF    08.0
....................          output_low(S2); 
0D41:  BSF    03.5
0D42:  BCF    08.1
0D43:  BCF    03.5
0D44:  BCF    08.1
....................          output_low(S3); 
0D45:  BSF    03.5
0D46:  BCF    08.2
0D47:  BCF    03.5
0D48:  BCF    08.2
....................           
....................      } 
0D49:  GOTO   5FD
0D4A:  CLRF   2B
0D4B:  BTFSC  0B.7
0D4C:  BSF    2B.7
0D4D:  BCF    0B.7
....................      else {    // modo equalizao Remove o curto circuito entre as baterias e se carrega at que a voltagem de cada uma chegue a tenso da fonte repois religa  
....................          if ((v1_dc >= v_equal) || (v2_dc > v_equal)) { output_high(S1);} 
0D4E:  CLRF   68
0D4F:  CLRF   67
0D50:  MOVLW  20
0D51:  MOVWF  66
0D52:  MOVLW  85
0D53:  MOVWF  65
0D54:  MOVF   31,W
0D55:  MOVWF  6C
0D56:  MOVF   30,W
0D57:  MOVWF  6B
0D58:  MOVF   2F,W
0D59:  MOVWF  6A
0D5A:  MOVF   2E,W
0D5B:  MOVWF  69
0D5C:  BCF    0A.3
0D5D:  CALL   236
0D5E:  BSF    0A.3
0D5F:  BTFSC  2B.7
0D60:  BSF    0B.7
0D61:  BTFSC  03.0
0D62:  GOTO   57E
0D63:  BTFSC  03.2
0D64:  GOTO   57E
0D65:  CLRF   2B
0D66:  BTFSC  0B.7
0D67:  BSF    2B.7
0D68:  BCF    0B.7
0D69:  CLRF   68
0D6A:  CLRF   67
0D6B:  MOVLW  20
0D6C:  MOVWF  66
0D6D:  MOVLW  85
0D6E:  MOVWF  65
0D6F:  MOVF   35,W
0D70:  MOVWF  6C
0D71:  MOVF   34,W
0D72:  MOVWF  6B
0D73:  MOVF   33,W
0D74:  MOVWF  6A
0D75:  MOVF   32,W
0D76:  MOVWF  69
0D77:  BCF    0A.3
0D78:  CALL   236
0D79:  BSF    0A.3
0D7A:  BTFSC  2B.7
0D7B:  BSF    0B.7
0D7C:  BTFSS  03.0
0D7D:  GOTO   583
0D7E:  BSF    03.5
0D7F:  BCF    08.0
0D80:  BCF    03.5
0D81:  BSF    08.0
0D82:  GOTO   587
....................          else {output_low(S1);} 
0D83:  BSF    03.5
0D84:  BCF    08.0
0D85:  BCF    03.5
0D86:  BCF    08.0
0D87:  CLRF   2B
0D88:  BTFSC  0B.7
0D89:  BSF    2B.7
0D8A:  BCF    0B.7
....................           
....................          if ((v2_dc > v_equal) || (v3_dc > v_equal)) { output_high(S2);} 
0D8B:  CLRF   68
0D8C:  CLRF   67
0D8D:  MOVLW  20
0D8E:  MOVWF  66
0D8F:  MOVLW  85
0D90:  MOVWF  65
0D91:  MOVF   35,W
0D92:  MOVWF  6C
0D93:  MOVF   34,W
0D94:  MOVWF  6B
0D95:  MOVF   33,W
0D96:  MOVWF  6A
0D97:  MOVF   32,W
0D98:  MOVWF  69
0D99:  BCF    0A.3
0D9A:  CALL   236
0D9B:  BSF    0A.3
0D9C:  BTFSC  2B.7
0D9D:  BSF    0B.7
0D9E:  BTFSC  03.0
0D9F:  GOTO   5B9
0DA0:  CLRF   2B
0DA1:  BTFSC  0B.7
0DA2:  BSF    2B.7
0DA3:  BCF    0B.7
0DA4:  CLRF   68
0DA5:  CLRF   67
0DA6:  MOVLW  20
0DA7:  MOVWF  66
0DA8:  MOVLW  85
0DA9:  MOVWF  65
0DAA:  MOVF   39,W
0DAB:  MOVWF  6C
0DAC:  MOVF   38,W
0DAD:  MOVWF  6B
0DAE:  MOVF   37,W
0DAF:  MOVWF  6A
0DB0:  MOVF   36,W
0DB1:  MOVWF  69
0DB2:  BCF    0A.3
0DB3:  CALL   236
0DB4:  BSF    0A.3
0DB5:  BTFSC  2B.7
0DB6:  BSF    0B.7
0DB7:  BTFSS  03.0
0DB8:  GOTO   5BE
0DB9:  BSF    03.5
0DBA:  BCF    08.1
0DBB:  BCF    03.5
0DBC:  BSF    08.1
0DBD:  GOTO   5C2
....................          else  {output_low(S2);} 
0DBE:  BSF    03.5
0DBF:  BCF    08.1
0DC0:  BCF    03.5
0DC1:  BCF    08.1
0DC2:  CLRF   2B
0DC3:  BTFSC  0B.7
0DC4:  BSF    2B.7
0DC5:  BCF    0B.7
....................           
....................          if ((v3_dc < v_equal) || (v4_dc < v_equal)) {output_high(S3);} 
0DC6:  MOVF   39,W
0DC7:  MOVWF  68
0DC8:  MOVF   38,W
0DC9:  MOVWF  67
0DCA:  MOVF   37,W
0DCB:  MOVWF  66
0DCC:  MOVF   36,W
0DCD:  MOVWF  65
0DCE:  CLRF   6C
0DCF:  CLRF   6B
0DD0:  MOVLW  20
0DD1:  MOVWF  6A
0DD2:  MOVLW  85
0DD3:  MOVWF  69
0DD4:  BCF    0A.3
0DD5:  CALL   236
0DD6:  BSF    0A.3
0DD7:  BTFSC  2B.7
0DD8:  BSF    0B.7
0DD9:  BTFSC  03.0
0DDA:  GOTO   5F4
0DDB:  CLRF   2B
0DDC:  BTFSC  0B.7
0DDD:  BSF    2B.7
0DDE:  BCF    0B.7
0DDF:  MOVF   3D,W
0DE0:  MOVWF  68
0DE1:  MOVF   3C,W
0DE2:  MOVWF  67
0DE3:  MOVF   3B,W
0DE4:  MOVWF  66
0DE5:  MOVF   3A,W
0DE6:  MOVWF  65
0DE7:  CLRF   6C
0DE8:  CLRF   6B
0DE9:  MOVLW  20
0DEA:  MOVWF  6A
0DEB:  MOVLW  85
0DEC:  MOVWF  69
0DED:  BCF    0A.3
0DEE:  CALL   236
0DEF:  BSF    0A.3
0DF0:  BTFSC  2B.7
0DF1:  BSF    0B.7
0DF2:  BTFSS  03.0
0DF3:  GOTO   5F9
0DF4:  BSF    03.5
0DF5:  BCF    08.2
0DF6:  BCF    03.5
0DF7:  BSF    08.2
0DF8:  GOTO   5FD
....................          else  {output_low(S3);}  
0DF9:  BSF    03.5
0DFA:  BCF    08.2
0DFB:  BCF    03.5
0DFC:  BCF    08.2
....................      } 
0DFD:  BSF    0A.3
0DFE:  BCF    0A.4
0DFF:  GOTO   620 (RETURN)
.................... } 
....................  
....................  
....................  

Configuration Fuses:
   Word  1: 3F39   XT NOWDT NOPUT NOBROWNOUT NOLVP NOCPD NOWRT NODEBUG NOPROTECT
